(lp0
ccopy_reg
_reconstructor
p1
(cnn_dynamics_roach.msg._velroach_msg
velroach_msg
p2
c__builtin__
object
p3
Ntp4
Rp5
(lp6
g1
(crospy.rostime
Time
p7
g3
Ntp8
Rp9
(lp10
I1518823963
aI965635061
abaI0
aI0
aI11043068
aI6265056
aI-1088
aI1704
aI-2400
aI49
aI-18
aI889
abag1
(g2
g3
Ntp11
Rp12
(lp13
g1
(g7
g3
Ntp14
Rp15
(lp16
I1518823964
aI23098945
abaF530.7109106411793
aF201.63972907215668
aI11048708
aI6266244
aI15
aI146
aI-80
aI-15
aI-20
aI906
abag1
(g2
g3
Ntp17
Rp18
(lp19
g1
(g7
g3
Ntp20
Rp21
(lp22
I1518823964
aI97309112
abaF497.1676342628834
aF147.06774768997022
aI11049108
aI6266096
aI-8
aI105
aI12
aI-10
aI-14
aI905
abag1
(g2
g3
Ntp23
Rp24
(lp25
g1
(g7
g3
Ntp26
Rp27
(lp28
I1518823964
aI200320005
abaF536.0330639580792
aF160.9350108007414
aI11079620
aI6275768
aI67
aI270
aI-984
aI263
aI-31
aI863
abag1
(g2
g3
Ntp29
Rp30
(lp31
g1
(g7
g3
Ntp32
Rp33
(lp34
I1518823964
aI303456068
abaF587.3844486631259
aF160.49096724616447
aI11131560
aI6288148
aI-808
aI-4007
aI-1450
aI99
aI-81
aI901
abag1
(g2
g3
Ntp35
Rp36
(lp37
g1
(g7
g3
Ntp38
Rp39
(lp40
I1518823964
aI400666952
abaF561.2239839422979
aF205.72320990154088
aI11189936
aI6302892
aI-1544
aI-8910
aI-4785
aI80
aI-52
aI903
abag1
(g2
g3
Ntp41
Rp42
(lp43
g1
(g7
g3
Ntp44
Rp45
(lp46
I1518823964
aI496052026
abaF282.4454667667568
aF695.7604745190043
aI11245200
aI6322268
aI4729
aI1869
aI86
aI99
aI-41
aI903
abag1
(g2
g3
Ntp47
Rp48
(lp49
g1
(g7
g3
Ntp50
Rp51
(lp52
I1518823964
aI600356101
abaF508.21922662376596
aF151.63964275869873
aI11267280
aI6389428
aI6104
aI11572
aI-2997
aI21
aI-138
aI883
abag1
(g2
g3
Ntp53
Rp54
(lp55
g1
(g7
g3
Ntp56
Rp57
(lp58
I1518823964
aI703043937
abaF553.2165213137067
aF185.80708133188443
aI11310464
aI6402540
aI10
aI6480
aI-2671
aI107
aI-16
aI878
abag1
(g2
g3
Ntp59
Rp60
(lp61
g1
(g7
g3
Ntp62
Rp63
(lp64
I1518823964
aI800014019
abaF497.51463276901615
aF172.3251996686796
aI11356320
aI6417912
aI-377
aI252
aI1977
aI189
aI-68
aI896
abag1
(g2
g3
Ntp65
Rp66
(lp67
g1
(g7
g3
Ntp68
Rp69
(lp70
I1518823964
aI905441045
abaF534.9226084450661
aF216.41723663172354
aI11398184
aI6434016
aI723
aI3703
aI-1243
aI267
aI-36
aI866
abag1
(g2
g3
Ntp71
Rp72
(lp73
g1
(g7
g3
Ntp74
Rp75
(lp76
I1518823964
aI998733997
abaF547.5655787549213
aF207.29008192540465
aI11447872
aI6452320
aI1481
aI133
aI-2392
aI69
aI-63
aI884
abag1
(g2
g3
Ntp77
Rp78
(lp79
g1
(g7
g3
Ntp80
Rp81
(lp82
I1518823965
aI102025032
abaF500.54197205723443
aF225.1086134369824
aI11483480
aI6469900
aI718
aI-2789
aI-2062
aI306
aI-38
aI876
abag1
(g2
g3
Ntp83
Rp84
(lp85
g1
(g7
g3
Ntp86
Rp87
(lp88
I1518823965
aI198558092
abaF588.4829273077078
aF207.56080532489756
aI11527160
aI6491604
aI-2101
aI5290
aI1686
aI233
aI-55
aI866
abag1
(g2
g3
Ntp89
Rp90
(lp91
g1
(g7
g3
Ntp92
Rp93
(lp94
I1518823965
aI301140069
abaF572.5723744090369
aF165.55243951686992
aI11586624
aI6510944
aI-311
aI-4706
aI-3591
aI78
aI-38
aI898
abag1
(g2
g3
Ntp95
Rp96
(lp97
g1
(g7
g3
Ntp98
Rp99
(lp100
I1518823965
aI393440961
abaF494.29146049410303
aF218.24697717163204
aI11644072
aI6527048
aI262
aI2228
aI-1210
aI121
aI-17
aI901
abag1
(g2
g3
Ntp101
Rp102
(lp103
g1
(g7
g3
Ntp104
Rp105
(lp106
I1518823965
aI501666069
abaF512.1999834695031
aF164.3370880765985
aI11693108
aI6548416
aI-3551
aI-3146
aI2758
aI92
aI-50
aI903
abag1
(g2
g3
Ntp107
Rp108
(lp109
g1
(g7
g3
Ntp110
Rp111
(lp112
I1518823965
aI599085092
abaF582.1300008410844
aF172.19815481447034
aI11730348
aI6563532
aI-4662
aI3458
aI1281
aI258
aI-12
aI847
abag1
(g2
g3
Ntp113
Rp114
(lp115
g1
(g7
g3
Ntp116
Rp117
(lp118
I1518823965
aI704339027
abaF504.6078133170686
aF215.10440172774568
aI11788372
aI6579592
aI5820
aI-7
aI3473
aI74
aI-58
aI897
abag1
(g2
g3
Ntp119
Rp120
(lp121
g1
(g7
g3
Ntp122
Rp123
(lp124
I1518823965
aI805253982
abaF524.3393992253872
aF177.69931410631443
aI11840104
aI6597748
aI-1634
aI-3142
aI1936
aI66
aI0
aI883
abag1
(g2
g3
Ntp125
Rp126
(lp127
g1
(g7
g3
Ntp128
Rp129
(lp130
I1518823965
aI901639938
abaF540.1260478817006
aF193.74691076014327
aI11886916
aI6611820
aI538
aI-1841
aI-666
aI189
aI-69
aI899
abag1
(g2
g3
Ntp131
Rp132
(lp133
g1
(g7
g3
Ntp134
Rp135
(lp136
I1518823965
aI998054981
abaF578.569758368693
aF212.5286136891092
aI11925652
aI6630024
aI2625
aI2214
aI-321
aI242
aI-36
aI866
abag1
(g2
g3
Ntp137
Rp138
(lp139
g1
(g7
g3
Ntp140
Rp141
(lp142
I1518823966
aI100698947
abaF583.6714391766376
aF177.7003716013752
aI11982776
aI6650924
aI-4528
aI1154
aI959
aI32
aI-41
aI882
abag1
(g2
g3
Ntp143
Rp144
(lp145
g1
(g7
g3
Ntp146
Rp147
(lp148
I1518823966
aI193080902
abaF542.2496331698931
aF155.53802919477724
aI12043420
aI6665940
aI1126
aI-1310
aI-1533
aI72
aI-14
aI887
abag1
(g2
g3
Ntp149
Rp150
(lp151
g1
(g7
g3
Ntp152
Rp153
(lp154
I1518823966
aI301170110
abaF578.7596529465716
aF198.67479882059558
aI12094740
aI6680260
aI3365
aI991
aI583
aI33
aI-30
aI880
abag1
(g2
g3
Ntp155
Rp156
(lp157
g1
(g7
g3
Ntp158
Rp159
(lp160
I1518823966
aI397686004
abaF513.3212681803618
aF210.8095421881385
aI12128764
aI6699500
aI4720
aI490
aI-3310
aI246
aI-59
aI872
abag1
(g2
g3
Ntp161
Rp162
(lp163
g1
(g7
g3
Ntp164
Rp165
(lp166
I1518823966
aI502813100
abaF581.4587989288325
aF211.56335406835683
aI12179244
aI6720156
aI-9388
aI2632
aI-536
aI23
aI-49
aI883
abag1
(g2
g3
Ntp167
Rp168
(lp169
g1
(g7
g3
Ntp170
Rp171
(lp172
I1518823966
aI604506015
abaF570.2638644736305
aF182.10023782040315
aI12240752
aI6740236
aI-700
aI-5142
aI-4720
aI71
aI-69
aI900
abag1
(g2
g3
Ntp173
Rp174
(lp175
g1
(g7
g3
Ntp176
Rp177
(lp178
I1518823966
aI700860977
abaF587.9966803662765
aF147.14377185348079
aI12298852
aI6758732
aI-993
aI1974
aI547
aI124
aI-25
aI900
abag1
(g2
g3
Ntp179
Rp180
(lp181
g1
(g7
g3
Ntp182
Rp183
(lp184
I1518823966
aI797154903
abaF540.4015535788118
aF133.3836592074588
aI12360620
aI6774784
aI-994
aI-4
aI-1411
aI105
aI-25
aI903
abag1
(g2
g3
Ntp185
Rp186
(lp187
g1
(g7
g3
Ntp188
Rp189
(lp190
I1518823966
aI901365995
abaF586.2994174237974
aF174.55112199647746
aI12413652
aI6788464
aI-4253
aI-143
aI-73
aI129
aI-36
aI894
abag1
(g2
g3
Ntp191
Rp192
(lp193
g1
(g7
g3
Ntp194
Rp195
(lp196
I1518823967
aI3900051
abaF582.9331301796723
aF139.84370243229574
aI12459508
aI6804428
aI-2607
aI-399
aI-19
aI310
aI-57
aI878
abag1
(g2
g3
Ntp197
Rp198
(lp199
g1
(g7
g3
Ntp200
Rp201
(lp202
I1518823967
aI100322961
abaF553.7871841618928
aF189.83432132681577
aI12511040
aI6817908
aI225
aI3612
aI1428
aI261
aI-25
aI868
abag1
(g2
g3
Ntp203
Rp204
(lp205
g1
(g7
g3
Ntp206
Rp207
(lp208
I1518823967
aI197228908
abaF572.4472974513715
aF156.50071160305308
aI12569592
aI6834484
aI-507
aI-3228
aI-2830
aI70
aI-31
aI890
abag1
(g2
g3
Ntp209
Rp210
(lp211
g1
(g7
g3
Ntp212
Rp213
(lp214
I1518823967
aI299876928
abaF555.9108423500278
aF226.52411814707628
aI12630016
aI6850324
aI598
aI744
aI412
aI93
aI-39
aI900
abag1
(g2
g3
Ntp215
Rp216
(lp217
g1
(g7
g3
Ntp218
Rp219
(lp220
I1518823967
aI403702974
abaF587.3252502303351
aF216.1847375850644
aI12686464
aI6870744
aI1652
aI-3287
aI-651
aI124
aI-46
aI891
abag1
(g2
g3
Ntp221
Rp222
(lp223
g1
(g7
g3
Ntp224
Rp225
(lp226
I1518823967
aI500262022
abaF474.38739504263765
aF301.0130013960004
aI12733676
aI6891632
aI4167
aI-4207
aI-4346
aI198
aI-34
aI891
abag1
(g2
g3
Ntp227
Rp228
(lp229
g1
(g7
g3
Ntp230
Rp231
(lp232
I1518823967
aI596697092
abaF81.38928760385875
aF765.3491692033964
aI12779148
aI6921968
aI-7398
aI6312
aI631
aI-155
aI-50
aI872
abag1
(g2
g3
Ntp233
Rp234
(lp235
g1
(g7
g3
Ntp236
Rp237
(lp238
I1518823967
aI699215888
abaF132.19778027348755
aF399.09071788956004
aI12793304
aI6993412
aI-3992
aI-939
aI-1048
aI-9
aI-211
aI897
abag1
(g2
g3
Ntp239
Rp240
(lp241
g1
(g7
g3
Ntp242
Rp243
(lp244
I1518823967
aI803203105
abaF477.30872216694536
aF520.1573187502694
aI12808348
aI7030636
aI-1517
aI-888
aI783
aI-11
aI-48
aI877
abag1
(g2
g3
Ntp245
Rp246
(lp247
g1
(g7
g3
Ntp248
Rp249
(lp250
I1518823967
aI899540901
abaF133.4930538207803
aF578.4029140346988
aI12844660
aI7066716
aI2080
aI39
aI-449
aI245
aI-297
aI842
abag1
(g2
g3
Ntp251
Rp252
(lp253
g1
(g7
g3
Ntp254
Rp255
(lp256
I1518823968
aI2454042
abaF308.9512733501339
aF370.50845215037396
aI12862736
aI7122088
aI-5984
aI-2183
aI-89
aI-36
aI-29
aI875
abag1
(g2
g3
Ntp257
Rp258
(lp259
g1
(g7
g3
Ntp260
Rp261
(lp262
I1518823968
aI96103906
abaF540.206607557325
aF565.5048393917964
aI12896724
aI7159372
aI1781
aI-122
aI600
aI0
aI-85
aI893
abag1
(g2
g3
Ntp263
Rp264
(lp265
g1
(g7
g3
Ntp266
Rp267
(lp268
I1518823968
aI202727079
abaF159.0324093374247
aF428.25278366992967
aI12953576
aI7204480
aI3102
aI-6016
aI-47
aI86
aI-365
aI886
abag1
(g2
g3
Ntp269
Rp270
(lp271
g1
(g7
g3
Ntp272
Rp273
(lp274
I1518823968
aI299334049
abaF184.58300272884804
aF420.52970808107153
aI12969572
aI7247324
aI4359
aI-787
aI2253
aI12
aI-77
aI884
abag1
(g2
g3
Ntp275
Rp276
(lp277
g1
(g7
g3
Ntp278
Rp279
(lp280
I1518823968
aI397217988
abaF371.1984028646572
aF526.2561228449644
aI12991812
aI7290448
aI501
aI-2132
aI-1142
aI1
aI-94
aI901
abag1
(g2
g3
Ntp281
Rp282
(lp283
g1
(g7
g3
Ntp284
Rp285
(lp286
I1518823968
aI501125097
abaF359.1657737353727
aF288.78768554902456
aI13032396
aI7336516
aI4217
aI-8728
aI583
aI26
aI-171
aI898
abag1
(g2
g3
Ntp287
Rp288
(lp289
g1
(g7
g3
Ntp290
Rp291
(lp292
I1518823968
aI602453947
abaF498.406917922341
aF381.66644000942244
aI13071148
aI7364456
aI164
aI-6326
aI-65
aI35
aI-47
aI891
abag1
(g2
g3
Ntp293
Rp294
(lp295
g1
(g7
g3
Ntp296
Rp297
(lp298
I1518823968
aI698967933
abaF488.64904568152855
aF436.1366916297774
aI13117652
aI7399364
aI5713
aI-1862
aI623
aI136
aI-92
aI885
abag1
(g2
g3
Ntp299
Rp300
(lp301
g1
(g7
g3
Ntp302
Rp303
(lp304
I1518823968
aI801553010
abaF541.4649038409615
aF493.4778737264357
aI13166676
aI7444044
aI-7945
aI3280
aI1294
aI-13
aI-74
aI879
aba.