(lp0
ccopy_reg
_reconstructor
p1
(cgeometry_msgs.msg._PoseStamped
PoseStamped
p2
c__builtin__
object
p3
Ntp4
Rp5
(lp6
g1
(cstd_msgs.msg._Header
Header
p7
g3
Ntp8
Rp9
(lp10
I566871
ag1
(cgenpy.rostime
Time
p11
g3
Ntp12
Rp13
(lp14
I1516406149
aI519903881
abaS'world'
p15
abag1
(cgeometry_msgs.msg._Pose
Pose
p16
g3
Ntp17
Rp18
(lp19
g1
(cgeometry_msgs.msg._Point
Point
p20
g3
Ntp21
Rp22
(lp23
F1.1583086252212524
aF0.8688099384307861
aF0.06393074989318848
abag1
(cgeometry_msgs.msg._Quaternion
Quaternion
p24
g3
Ntp25
Rp26
(lp27
F-0.007432509679347277
aF-0.030276944860816002
aF0.9082304239273071
aF0.41730746626853943
abababag1
(g2
g3
Ntp28
Rp29
(lp30
g1
(g7
g3
Ntp31
Rp32
(lp33
I566877
ag1
(g11
g3
Ntp34
Rp35
(lp36
I1516406149
aI579899775
abaS'world'
p37
abag1
(g16
g3
Ntp38
Rp39
(lp40
g1
(g20
g3
Ntp41
Rp42
(lp43
F1.1581110954284668
aF0.8686200380325317
aF0.0639718770980835
abag1
(g24
g3
Ntp44
Rp45
(lp46
F-0.007261686027050018
aF-0.02789340540766716
aF0.9079802632331848
aF0.41802066564559937
abababag1
(g2
g3
Ntp47
Rp48
(lp49
g1
(g7
g3
Ntp50
Rp51
(lp52
I566887
ag1
(g11
g3
Ntp53
Rp54
(lp55
I1516406149
aI680014942
abaS'world'
p56
abag1
(g16
g3
Ntp57
Rp58
(lp59
g1
(g20
g3
Ntp60
Rp61
(lp62
F1.1492472887039185
aF0.8692941665649414
aF0.07430624961853027
abag1
(g24
g3
Ntp63
Rp64
(lp65
F0.053367260843515396
aF-0.13450902700424194
aF0.8894171714782715
aF0.43358534574508667
abababag1
(g2
g3
Ntp66
Rp67
(lp68
g1
(g7
g3
Ntp69
Rp70
(lp71
I566891
ag1
(g11
g3
Ntp72
Rp73
(lp74
I1516406149
aI719837797
abaS'world'
p75
abag1
(g16
g3
Ntp76
Rp77
(lp78
g1
(g20
g3
Ntp79
Rp80
(lp81
F1.1381069421768188
aF0.877880871295929
aF0.07691929489374161
abag1
(g24
g3
Ntp82
Rp83
(lp84
F-0.08522298187017441
aF-0.10207188129425049
aF0.8734959363937378
aF0.4683196544647217
abababag1
(g2
g3
Ntp85
Rp86
(lp87
g1
(g7
g3
Ntp88
Rp89
(lp90
I566901
ag1
(g11
g3
Ntp91
Rp92
(lp93
I1516406149
aI819835493
abaS'world'
p94
abag1
(g16
g3
Ntp95
Rp96
(lp97
g1
(g20
g3
Ntp98
Rp99
(lp100
F1.1370742321014404
aF0.8818187713623047
aF0.06429966539144516
abag1
(g24
g3
Ntp101
Rp102
(lp103
F0.06121421232819557
aF-0.005930264014750719
aF0.789352536201477
aF0.6108521223068237
abababag1
(g2
g3
Ntp104
Rp105
(lp106
g1
(g7
g3
Ntp107
Rp108
(lp109
I566911
ag1
(g11
g3
Ntp110
Rp111
(lp112
I1516406149
aI919839205
abaS'world'
p113
abag1
(g16
g3
Ntp114
Rp115
(lp116
g1
(g20
g3
Ntp117
Rp118
(lp119
F1.1382876634597778
aF0.8911151885986328
aF0.06227286159992218
abag1
(g24
g3
Ntp120
Rp121
(lp122
F0.012363647110760212
aF-0.004592091776430607
aF0.5379302501678467
aF0.842886209487915
abababag1
(g2
g3
Ntp123
Rp124
(lp125
g1
(g7
g3
Ntp126
Rp127
(lp128
I566921
ag1
(g11
g3
Ntp129
Rp130
(lp131
I1516406150
aI19828606
abaS'world'
p132
abag1
(g16
g3
Ntp133
Rp134
(lp135
g1
(g20
g3
Ntp136
Rp137
(lp138
F1.153640627861023
aF0.9181656241416931
aF0.06584606319665909
abag1
(g24
g3
Ntp139
Rp140
(lp141
F-0.028363509103655815
aF-0.03594471141695976
aF0.5468496084213257
aF0.8359779715538025
abababag1
(g2
g3
Ntp142
Rp143
(lp144
g1
(g7
g3
Ntp145
Rp146
(lp147
I566931
ag1
(g11
g3
Ntp148
Rp149
(lp150
I1516406150
aI119792194
abaS'world'
p151
abag1
(g16
g3
Ntp152
Rp153
(lp154
g1
(g20
g3
Ntp155
Rp156
(lp157
F1.1754683256149292
aF0.9469147324562073
aF0.06963526457548141
abag1
(g24
g3
Ntp158
Rp159
(lp160
F0.007927706465125084
aF-0.009980302304029465
aF0.5723379254341125
aF0.8199188709259033
abababag1
(g2
g3
Ntp161
Rp162
(lp163
g1
(g7
g3
Ntp164
Rp165
(lp166
I566941
ag1
(g11
g3
Ntp167
Rp168
(lp169
I1516406150
aI219844976
abaS'world'
p170
abag1
(g16
g3
Ntp171
Rp172
(lp173
g1
(g20
g3
Ntp174
Rp175
(lp176
F1.1969859600067139
aF0.9841264486312866
aF0.059456322342157364
abag1
(g24
g3
Ntp177
Rp178
(lp179
F-0.007076796144247055
aF-0.013162817806005478
aF0.5794734358787537
aF0.8148541450500488
abababag1
(g2
g3
Ntp180
Rp181
(lp182
g1
(g7
g3
Ntp183
Rp184
(lp185
I566951
ag1
(g11
g3
Ntp186
Rp187
(lp188
I1516406150
aI319958548
abaS'world'
p189
abag1
(g16
g3
Ntp190
Rp191
(lp192
g1
(g20
g3
Ntp193
Rp194
(lp195
F1.213818073272705
aF1.0018129348754883
aF0.07920733839273453
abag1
(g24
g3
Ntp196
Rp197
(lp198
F0.03728146478533745
aF-0.17139984667301178
aF0.5372834801673889
aF0.8249598145484924
abababag1
(g2
g3
Ntp199
Rp200
(lp201
g1
(g7
g3
Ntp202
Rp203
(lp204
I566961
ag1
(g11
g3
Ntp205
Rp206
(lp207
I1516406150
aI419813354
abaS'world'
p208
abag1
(g16
g3
Ntp209
Rp210
(lp211
g1
(g20
g3
Ntp212
Rp213
(lp214
F1.2440541982650757
aF1.0377306938171387
aF0.06589944660663605
abag1
(g24
g3
Ntp215
Rp216
(lp217
F-0.03265818580985069
aF0.18265162408351898
aF0.5590967535972595
aF0.8080734610557556
abababag1
(g2
g3
Ntp218
Rp219
(lp220
g1
(g7
g3
Ntp221
Rp222
(lp223
I566971
ag1
(g11
g3
Ntp224
Rp225
(lp226
I1516406150
aI519816835
abaS'world'
p227
abag1
(g16
g3
Ntp228
Rp229
(lp230
g1
(g20
g3
Ntp231
Rp232
(lp233
F1.215024471282959
aF1.036794900894165
aF0.0780317410826683
abag1
(g24
g3
Ntp234
Rp235
(lp236
F-0.17318221926689148
aF-0.2043013870716095
aF0.6235889792442322
aF0.7344424724578857
abababag1
(g2
g3
Ntp237
Rp238
(lp239
g1
(g7
g3
Ntp240
Rp241
(lp242
I566981
ag1
(g11
g3
Ntp243
Rp244
(lp245
I1516406150
aI619890602
abaS'world'
p246
abag1
(g16
g3
Ntp247
Rp248
(lp249
g1
(g20
g3
Ntp250
Rp251
(lp252
F1.2139384746551514
aF1.0553969144821167
aF0.07387235015630722
abag1
(g24
g3
Ntp253
Rp254
(lp255
F-0.10435764491558075
aF-0.08695446699857712
aF0.7444784045219421
aF0.6536821126937866
abababag1
(g2
g3
Ntp256
Rp257
(lp258
g1
(g7
g3
Ntp259
Rp260
(lp261
I566991
ag1
(g11
g3
Ntp262
Rp263
(lp264
I1516406150
aI719757801
abaS'world'
p265
abag1
(g16
g3
Ntp266
Rp267
(lp268
g1
(g20
g3
Ntp269
Rp270
(lp271
F1.232326865196228
aF1.1043213605880737
aF0.06385689228773117
abag1
(g24
g3
Ntp272
Rp273
(lp274
F-0.018585294485092163
aF0.02142530120909214
aF0.7684199810028076
aF0.6393172144889832
abababag1
(g2
g3
Ntp275
Rp276
(lp277
g1
(g7
g3
Ntp278
Rp279
(lp280
I567001
ag1
(g11
g3
Ntp281
Rp282
(lp283
I1516406150
aI819915259
abaS'world'
p284
abag1
(g16
g3
Ntp285
Rp286
(lp287
g1
(g20
g3
Ntp288
Rp289
(lp290
F1.2164509296417236
aF1.129532814025879
aF0.0733819454908371
abag1
(g24
g3
Ntp291
Rp292
(lp293
F0.06395790725946426
aF-0.11301363259553909
aF0.7630692720413208
aF0.6331371665000916
abababag1
(g2
g3
Ntp294
Rp295
(lp296
g1
(g7
g3
Ntp297
Rp298
(lp299
I567011
ag1
(g11
g3
Ntp300
Rp301
(lp302
I1516406150
aI919774890
abaS'world'
p303
abag1
(g16
g3
Ntp304
Rp305
(lp306
g1
(g20
g3
Ntp307
Rp308
(lp309
F1.2111281156539917
aF1.1600466966629028
aF0.06800835579633713
abag1
(g24
g3
Ntp310
Rp311
(lp312
F-0.006058519706130028
aF-0.04859492555260658
aF0.8184633255004883
aF0.5724679827690125
abababag1
(g2
g3
Ntp313
Rp314
(lp315
g1
(g7
g3
Ntp316
Rp317
(lp318
I567021
ag1
(g11
g3
Ntp319
Rp320
(lp321
I1516406151
aI19738260
abaS'world'
p322
abag1
(g16
g3
Ntp323
Rp324
(lp325
g1
(g20
g3
Ntp326
Rp327
(lp328
F1.1733064651489258
aF1.167624592781067
aF0.07720648497343063
abag1
(g24
g3
Ntp329
Rp330
(lp331
F-0.06354695558547974
aF-0.17262466251850128
aF0.8131166696548462
aF0.5522714853286743
abababag1
(g2
g3
Ntp332
Rp333
(lp334
g1
(g7
g3
Ntp335
Rp336
(lp337
I567031
ag1
(g11
g3
Ntp338
Rp339
(lp340
I1516406151
aI119812444
abaS'world'
p341
abag1
(g16
g3
Ntp342
Rp343
(lp344
g1
(g20
g3
Ntp345
Rp346
(lp347
F1.1492022275924683
aF1.2008459568023682
aF0.07500716298818588
abag1
(g24
g3
Ntp348
Rp349
(lp350
F-0.06711716949939728
aF-0.14601127803325653
aF0.8821604251861572
aF0.4426838159561157
abababag1
(g2
g3
Ntp351
Rp352
(lp353
g1
(g7
g3
Ntp354
Rp355
(lp356
I567041
ag1
(g11
g3
Ntp357
Rp358
(lp359
I1516406151
aI219874967
abaS'world'
p360
abag1
(g16
g3
Ntp361
Rp362
(lp363
g1
(g20
g3
Ntp364
Rp365
(lp366
F1.1289039850234985
aF1.2584844827651978
aF0.06290487200021744
abag1
(g24
g3
Ntp367
Rp368
(lp369
F-0.04794258996844292
aF0.05507161468267441
aF0.9293803572654724
aF0.3618299663066864
abababag1
(g2
g3
Ntp370
Rp371
(lp372
g1
(g7
g3
Ntp373
Rp374
(lp375
I567051
ag1
(g11
g3
Ntp376
Rp377
(lp378
I1516406151
aI319454597
abaS'world'
p379
abag1
(g16
g3
Ntp380
Rp381
(lp382
g1
(g20
g3
Ntp383
Rp384
(lp385
F1.1021363735198975
aF1.2840222120285034
aF0.07590442150831223
abag1
(g24
g3
Ntp386
Rp387
(lp388
F-0.001921317190863192
aF-0.06449099630117416
aF0.9022989273071289
aF0.4262557327747345
abababag1
(g2
g3
Ntp389
Rp390
(lp391
g1
(g7
g3
Ntp392
Rp393
(lp394
I567061
ag1
(g11
g3
Ntp395
Rp396
(lp397
I1516406151
aI419740354
abaS'world'
p398
abag1
(g16
g3
Ntp399
Rp400
(lp401
g1
(g20
g3
Ntp402
Rp403
(lp404
F1.0765525102615356
aF1.3058557510375977
aF0.06494095176458359
abag1
(g24
g3
Ntp405
Rp406
(lp407
F-0.06244385614991188
aF-0.030997145920991898
aF0.9075521230697632
aF0.4141123592853546
abababag1
(g2
g3
Ntp408
Rp409
(lp410
g1
(g7
g3
Ntp411
Rp412
(lp413
I567071
ag1
(g11
g3
Ntp414
Rp415
(lp416
I1516406151
aI519760193
abaS'world'
p417
abag1
(g16
g3
Ntp418
Rp419
(lp420
g1
(g20
g3
Ntp421
Rp422
(lp423
F1.064253568649292
aF1.3291267156600952
aF0.0785786509513855
abag1
(g24
g3
Ntp424
Rp425
(lp426
F0.2405979037284851
aF0.02941211499273777
aF0.9198325276374817
aF0.3084734380245209
abababag1
(g2
g3
Ntp427
Rp428
(lp429
g1
(g7
g3
Ntp430
Rp431
(lp432
I567081
ag1
(g11
g3
Ntp433
Rp434
(lp435
I1516406151
aI619871171
abaS'world'
p436
abag1
(g16
g3
Ntp437
Rp438
(lp439
g1
(g20
g3
Ntp440
Rp441
(lp442
F1.0227041244506836
aF1.3559179306030273
aF0.07107707113027573
abag1
(g24
g3
Ntp443
Rp444
(lp445
F0.01912560872733593
aF-0.05314037203788757
aF0.9126554131507874
aF0.4048093259334564
abababag1
(g2
g3
Ntp446
Rp447
(lp448
g1
(g7
g3
Ntp449
Rp450
(lp451
I567091
ag1
(g11
g3
Ntp452
Rp453
(lp454
I1516406151
aI719801448
abaS'world'
p455
abag1
(g16
g3
Ntp456
Rp457
(lp458
g1
(g20
g3
Ntp459
Rp460
(lp461
F0.9680885672569275
aF1.3880136013031006
aF0.0702982097864151
abag1
(g24
g3
Ntp462
Rp463
(lp464
F-0.025830300524830818
aF-0.07970333844423294
aF0.9565860033035278
aF0.2791477143764496
abababag1
(g2
g3
Ntp465
Rp466
(lp467
g1
(g7
g3
Ntp468
Rp469
(lp470
I567101
ag1
(g11
g3
Ntp471
Rp472
(lp473
I1516406151
aI819873968
abaS'world'
p474
abag1
(g16
g3
Ntp475
Rp476
(lp477
g1
(g20
g3
Ntp478
Rp479
(lp480
F0.9120123386383057
aF1.4153461456298828
aF0.06771042197942734
abag1
(g24
g3
Ntp481
Rp482
(lp483
F-0.03698757290840149
aF-0.09908851981163025
aF0.9763607978820801
aF0.18850238621234894
abababag1
(g2
g3
Ntp484
Rp485
(lp486
g1
(g7
g3
Ntp487
Rp488
(lp489
I567111
ag1
(g11
g3
Ntp490
Rp491
(lp492
I1516406151
aI919761197
abaS'world'
p493
abag1
(g16
g3
Ntp494
Rp495
(lp496
g1
(g20
g3
Ntp497
Rp498
(lp499
F0.8679977655410767
aF1.4369804859161377
aF0.06776221096515656
abag1
(g24
g3
Ntp500
Rp501
(lp502
F0.07503492385149002
aF0.09056997299194336
aF0.9922557473182678
aF0.03994408994913101
abababag1
(g2
g3
Ntp503
Rp504
(lp505
g1
(g7
g3
Ntp506
Rp507
(lp508
I567121
ag1
(g11
g3
Ntp509
Rp510
(lp511
I1516406152
aI19791116
abaS'world'
p512
abag1
(g16
g3
Ntp513
Rp514
(lp515
g1
(g20
g3
Ntp516
Rp517
(lp518
F0.8195331692695618
aF1.4385687112808228
aF0.07005807757377625
abag1
(g24
g3
Ntp519
Rp520
(lp521
F0.012606189586222172
aF0.010347017087042332
aF0.9975706934928894
aF-0.067726269364357
abababag1
(g2
g3
Ntp522
Rp523
(lp524
g1
(g7
g3
Ntp525
Rp526
(lp527
I567131
ag1
(g11
g3
Ntp528
Rp529
(lp530
I1516406152
aI119704908
abaS'world'
p531
abag1
(g16
g3
Ntp532
Rp533
(lp534
g1
(g20
g3
Ntp535
Rp536
(lp537
F0.7885167598724365
aF1.4265501499176025
aF0.07327950745820999
abag1
(g24
g3
Ntp538
Rp539
(lp540
F0.07103930413722992
aF-0.01870708540081978
aF0.9771521687507629
aF-0.19944234192371368
abababag1
(g2
g3
Ntp541
Rp542
(lp543
g1
(g7
g3
Ntp544
Rp545
(lp546
I567141
ag1
(g11
g3
Ntp547
Rp548
(lp549
I1516406152
aI219765860
abaS'world'
p550
abag1
(g16
g3
Ntp551
Rp552
(lp553
g1
(g20
g3
Ntp554
Rp555
(lp556
F0.7400607466697693
aF1.406455636024475
aF0.07375277578830719
abag1
(g24
g3
Ntp557
Rp558
(lp559
F-0.04857495054602623
aF0.07403481006622314
aF0.922505259513855
aF-0.3756907284259796
abababag1
(g2
g3
Ntp560
Rp561
(lp562
g1
(g7
g3
Ntp563
Rp564
(lp565
I567151
ag1
(g11
g3
Ntp566
Rp567
(lp568
I1516406152
aI319775983
abaS'world'
p569
abag1
(g16
g3
Ntp570
Rp571
(lp572
g1
(g20
g3
Ntp573
Rp574
(lp575
F0.7188353538513184
aF1.3845478296279907
aF0.07226794213056564
abag1
(g24
g3
Ntp576
Rp577
(lp578
F0.06305384635925293
aF-0.08708932995796204
aF0.9463009238243103
aF-0.30488383769989014
abababag1
(g2
g3
Ntp579
Rp580
(lp581
g1
(g7
g3
Ntp582
Rp583
(lp584
I567161
ag1
(g11
g3
Ntp585
Rp586
(lp587
I1516406152
aI419796945
abaS'world'
p588
abag1
(g16
g3
Ntp589
Rp590
(lp591
g1
(g20
g3
Ntp592
Rp593
(lp594
F0.6921985149383545
aF1.3625820875167847
aF0.07075826078653336
abag1
(g24
g3
Ntp595
Rp596
(lp597
F0.01333160325884819
aF-0.19884145259857178
aF0.9764661192893982
aF-0.08245222270488739
abababag1
(g2
g3
Ntp598
Rp599
(lp600
g1
(g7
g3
Ntp601
Rp602
(lp603
I567171
ag1
(g11
g3
Ntp604
Rp605
(lp606
I1516406152
aI519905763
abaS'world'
p607
abag1
(g16
g3
Ntp608
Rp609
(lp610
g1
(g20
g3
Ntp611
Rp612
(lp613
F0.6629555821418762
aF1.3636888265609741
aF0.07372406870126724
abag1
(g24
g3
Ntp614
Rp615
(lp616
F0.017701955512166023
aF-0.017530886456370354
aF0.9940807819366455
aF-0.10574933141469955
abababag1
(g2
g3
Ntp617
Rp618
(lp619
g1
(g7
g3
Ntp620
Rp621
(lp622
I567181
ag1
(g11
g3
Ntp623
Rp624
(lp625
I1516406152
aI619728158
abaS'world'
p626
abag1
(g16
g3
Ntp627
Rp628
(lp629
g1
(g20
g3
Ntp630
Rp631
(lp632
F0.6316267251968384
aF1.3626152276992798
aF0.068522609770298
abag1
(g24
g3
Ntp633
Rp634
(lp635
F-0.027538083493709564
aF-0.08054953813552856
aF0.9926708340644836
aF-0.08578011393547058
abababag1
(g2
g3
Ntp636
Rp637
(lp638
g1
(g7
g3
Ntp639
Rp640
(lp641
I567191
ag1
(g11
g3
Ntp642
Rp643
(lp644
I1516406152
aI719855413
abaS'world'
p645
abag1
(g16
g3
Ntp646
Rp647
(lp648
g1
(g20
g3
Ntp649
Rp650
(lp651
F0.5799358487129211
aF1.3570584058761597
aF0.06262452900409698
abag1
(g24
g3
Ntp652
Rp653
(lp654
F0.0013292497023940086
aF-0.07054062187671661
aF0.995710015296936
aF0.059866275638341904
abababag1
(g2
g3
Ntp655
Rp656
(lp657
g1
(g7
g3
Ntp658
Rp659
(lp660
I567201
ag1
(g11
g3
Ntp661
Rp662
(lp663
I1516406152
aI819854228
abaS'world'
p664
abag1
(g16
g3
Ntp665
Rp666
(lp667
g1
(g20
g3
Ntp668
Rp669
(lp670
F0.5422136187553406
aF1.3683456182479858
aF0.07068222761154175
abag1
(g24
g3
Ntp671
Rp672
(lp673
F0.05587220937013626
aF-0.1421860307455063
aF0.9715419411659241
aF0.18101893365383148
abababag1
(g2
g3
Ntp674
Rp675
(lp676
g1
(g7
g3
Ntp677
Rp678
(lp679
I567211
ag1
(g11
g3
Ntp680
Rp681
(lp682
I1516406152
aI919773449
abaS'world'
p683
abag1
(g16
g3
Ntp684
Rp685
(lp686
g1
(g20
g3
Ntp687
Rp688
(lp689
F0.506109893321991
aF1.3902382850646973
aF0.06396649032831192
abag1
(g24
g3
Ntp690
Rp691
(lp692
F-0.02140524610877037
aF-0.12244398146867752
aF0.9792676568031311
aF0.1599506139755249
abababag1
(g2
g3
Ntp693
Rp694
(lp695
g1
(g7
g3
Ntp696
Rp697
(lp698
I567221
ag1
(g11
g3
Ntp699
Rp700
(lp701
I1516406153
aI19745590
abaS'world'
p702
abag1
(g16
g3
Ntp703
Rp704
(lp705
g1
(g20
g3
Ntp706
Rp707
(lp708
F0.4863598942756653
aF1.418859601020813
aF0.06955048441886902
abag1
(g24
g3
Ntp709
Rp710
(lp711
F0.016128646209836006
aF-0.0011643582256510854
aF0.9801173806190491
aF0.19775864481925964
abababag1
(g2
g3
Ntp712
Rp713
(lp714
g1
(g7
g3
Ntp715
Rp716
(lp717
I567231
ag1
(g11
g3
Ntp718
Rp719
(lp720
I1516406153
aI119651051
abaS'world'
p721
abag1
(g16
g3
Ntp722
Rp723
(lp724
g1
(g20
g3
Ntp725
Rp726
(lp727
F0.45827481150627136
aF1.4242104291915894
aF0.06782718747854233
abag1
(g24
g3
Ntp728
Rp729
(lp730
F0.019627122208476067
aF0.026232773438096046
aF0.9883688688278198
aF0.1485043615102768
abababag1
(g2
g3
Ntp731
Rp732
(lp733
g1
(g7
g3
Ntp734
Rp735
(lp736
I567241
ag1
(g11
g3
Ntp737
Rp738
(lp739
I1516406153
aI219779139
abaS'world'
p740
abag1
(g16
g3
Ntp741
Rp742
(lp743
g1
(g20
g3
Ntp744
Rp745
(lp746
F0.42037299275398254
aF1.4282090663909912
aF0.06793633103370667
abag1
(g24
g3
Ntp747
Rp748
(lp749
F0.03045319765806198
aF-0.09151753038167953
aF0.9934309720993042
aF0.061581145972013474
abababag1
(g2
g3
Ntp750
Rp751
(lp752
g1
(g7
g3
Ntp753
Rp754
(lp755
I567251
ag1
(g11
g3
Ntp756
Rp757
(lp758
I1516406153
aI319735869
abaS'world'
p759
abag1
(g16
g3
Ntp760
Rp761
(lp762
g1
(g20
g3
Ntp763
Rp764
(lp765
F0.38357895612716675
aF1.438088059425354
aF0.06365207582712173
abag1
(g24
g3
Ntp766
Rp767
(lp768
F0.001471076742745936
aF0.05867019668221474
aF0.9961674809455872
aF-0.06485401093959808
abababag1
(g2
g3
Ntp769
Rp770
(lp771
g1
(g7
g3
Ntp772
Rp773
(lp774
I567261
ag1
(g11
g3
Ntp775
Rp776
(lp777
I1516406153
aI419826390
abaS'world'
p778
abag1
(g16
g3
Ntp779
Rp780
(lp781
g1
(g20
g3
Ntp782
Rp783
(lp784
F0.34529975056648254
aF1.434111475944519
aF0.06874693930149078
abag1
(g24
g3
Ntp785
Rp786
(lp787
F0.061921458691358566
aF-0.17616844177246094
aF0.9668123126029968
aF0.17436861991882324
abababag1
(g2
g3
Ntp788
Rp789
(lp790
g1
(g7
g3
Ntp791
Rp792
(lp793
I567271
ag1
(g11
g3
Ntp794
Rp795
(lp796
I1516406153
aI519841619
abaS'world'
p797
abag1
(g16
g3
Ntp798
Rp799
(lp800
g1
(g20
g3
Ntp801
Rp802
(lp803
F0.3116384744644165
aF1.4590555429458618
aF0.06456215679645538
abag1
(g24
g3
Ntp804
Rp805
(lp806
F0.07012461125850677
aF-0.05707206949591637
aF0.9641647934913635
aF0.24942272901535034
abababag1
(g2
g3
Ntp807
Rp808
(lp809
g1
(g7
g3
Ntp810
Rp811
(lp812
I567281
ag1
(g11
g3
Ntp813
Rp814
(lp815
I1516406153
aI619813389
abaS'world'
p816
abag1
(g16
g3
Ntp817
Rp818
(lp819
g1
(g20
g3
Ntp820
Rp821
(lp822
F0.27608731389045715
aF1.4780642986297607
aF0.07465297728776932
abag1
(g24
g3
Ntp823
Rp824
(lp825
F0.0809631496667862
aF-0.02283555082976818
aF0.9465093612670898
aF0.3115183711051941
abababag1
(g2
g3
Ntp826
Rp827
(lp828
g1
(g7
g3
Ntp829
Rp830
(lp831
I567291
ag1
(g11
g3
Ntp832
Rp833
(lp834
I1516406153
aI719881175
abaS'world'
p835
abag1
(g16
g3
Ntp836
Rp837
(lp838
g1
(g20
g3
Ntp839
Rp840
(lp841
F0.23157909512519836
aF1.4940030574798584
aF0.06795472651720047
abag1
(g24
g3
Ntp842
Rp843
(lp844
F-0.07942666113376617
aF-0.07610144466161728
aF0.9209839701652527
aF0.3737492859363556
abababag1
(g2
g3
Ntp845
Rp846
(lp847
g1
(g7
g3
Ntp848
Rp849
(lp850
I567301
ag1
(g11
g3
Ntp851
Rp852
(lp853
I1516406153
aI819834014
abaS'world'
p854
abag1
(g16
g3
Ntp855
Rp856
(lp857
g1
(g20
g3
Ntp858
Rp859
(lp860
F0.19713860750198364
aF1.5045312643051147
aF0.0688503235578537
abag1
(g24
g3
Ntp861
Rp862
(lp863
F-0.06241787225008011
aF-0.19947311282157898
aF0.8852218985557556
aF0.4155680537223816
abababag1
(g2
g3
Ntp864
Rp865
(lp866
g1
(g7
g3
Ntp867
Rp868
(lp869
I567311
ag1
(g11
g3
Ntp870
Rp871
(lp872
I1516406153
aI919681258
abaS'world'
p873
abag1
(g16
g3
Ntp874
Rp875
(lp876
g1
(g20
g3
Ntp877
Rp878
(lp879
F0.18196174502372742
aF1.5372899770736694
aF0.0760728120803833
abag1
(g24
g3
Ntp880
Rp881
(lp882
F0.08758947253227234
aF-0.08088412880897522
aF0.8818961381912231
aF0.45611968636512756
abababag1
(g2
g3
Ntp883
Rp884
(lp885
g1
(g7
g3
Ntp886
Rp887
(lp888
I567321
ag1
(g11
g3
Ntp889
Rp890
(lp891
I1516406154
aI19787449
abaS'world'
p892
abag1
(g16
g3
Ntp893
Rp894
(lp895
g1
(g20
g3
Ntp896
Rp897
(lp898
F0.15740273892879486
aF1.5751994848251343
aF0.0650939866900444
abag1
(g24
g3
Ntp899
Rp900
(lp901
F-0.06884708255529404
aF-0.057991646230220795
aF0.8638362884521484
aF0.4956653118133545
abababag1
(g2
g3
Ntp902
Rp903
(lp904
g1
(g7
g3
Ntp905
Rp906
(lp907
I567331
ag1
(g11
g3
Ntp908
Rp909
(lp910
I1516406154
aI119664316
abaS'world'
p911
abag1
(g16
g3
Ntp912
Rp913
(lp914
g1
(g20
g3
Ntp915
Rp916
(lp917
F0.15116649866104126
aF1.6056225299835205
aF0.06927578896284103
abag1
(g24
g3
Ntp918
Rp919
(lp920
F0.15560382604599
aF0.1412818431854248
aF0.8808774352073669
aF0.42412495613098145
abababag1
(g2
g3
Ntp921
Rp922
(lp923
g1
(g7
g3
Ntp924
Rp925
(lp926
I567341
ag1
(g11
g3
Ntp927
Rp928
(lp929
I1516406154
aI219754892
abaS'world'
p930
abag1
(g16
g3
Ntp931
Rp932
(lp933
g1
(g20
g3
Ntp934
Rp935
(lp936
F0.119582399725914
aF1.6174824237823486
aF0.06867741048336029
abag1
(g24
g3
Ntp937
Rp938
(lp939
F0.06849198043346405
aF-0.07719526439905167
aF0.9496951699256897
aF0.29568400979042053
abababag1
(g2
g3
Ntp940
Rp941
(lp942
g1
(g7
g3
Ntp943
Rp944
(lp945
I567351
ag1
(g11
g3
Ntp946
Rp947
(lp948
I1516406154
aI319740048
abaS'world'
p949
abag1
(g16
g3
Ntp950
Rp951
(lp952
g1
(g20
g3
Ntp953
Rp954
(lp955
F0.08178640902042389
aF1.6227710247039795
aF0.06998110562562943
abag1
(g24
g3
Ntp956
Rp957
(lp958
F0.0798114463686943
aF0.037789516150951385
aF0.9957757592201233
aF0.025156565010547638
abababa.