(lp0
ccopy_reg
_reconstructor
p1
(cgeometry_msgs.msg._PoseStamped
PoseStamped
p2
c__builtin__
object
p3
Ntp4
Rp5
(lp6
g1
(cstd_msgs.msg._Header
Header
p7
g3
Ntp8
Rp9
(lp10
I882236
ag1
(cgenpy.rostime
Time
p11
g3
Ntp12
Rp13
(lp14
I1517532588
aI759203360
abaS'world'
p15
abag1
(cgeometry_msgs.msg._Pose
Pose
p16
g3
Ntp17
Rp18
(lp19
g1
(cgeometry_msgs.msg._Point
Point
p20
g3
Ntp21
Rp22
(lp23
F1.1243422031402588
aF0.6536450386047363
aF0.08643431961536407
abag1
(cgeometry_msgs.msg._Quaternion
Quaternion
p24
g3
Ntp25
Rp26
(lp27
F-0.03647330030798912
aF0.025661634281277657
aF0.7876144051551819
aF-0.6145524382591248
abababag1
(g2
g3
Ntp28
Rp29
(lp30
g1
(g7
g3
Ntp31
Rp32
(lp33
I882243
ag1
(g11
g3
Ntp34
Rp35
(lp36
I1517532588
aI829090673
abaS'world'
p37
abag1
(g16
g3
Ntp38
Rp39
(lp40
g1
(g20
g3
Ntp41
Rp42
(lp43
F1.1240185499191284
aF0.6542338728904724
aF0.08614048361778259
abag1
(g24
g3
Ntp44
Rp45
(lp46
F-0.026924902573227882
aF0.029222160577774048
aF0.7855547666549683
aF-0.6175151467323303
abababag1
(g2
g3
Ntp47
Rp48
(lp49
g1
(g7
g3
Ntp50
Rp51
(lp52
I882250
ag1
(g11
g3
Ntp53
Rp54
(lp55
I1517532588
aI898945955
abaS'world'
p56
abag1
(g16
g3
Ntp57
Rp58
(lp59
g1
(g20
g3
Ntp60
Rp61
(lp62
F1.1244432926177979
aF0.6544726490974426
aF0.08600500971078873
abag1
(g24
g3
Ntp63
Rp64
(lp65
F-0.023787638172507286
aF0.03187452256679535
aF0.7831855416297913
aF-0.6205147504806519
abababag1
(g2
g3
Ntp66
Rp67
(lp68
g1
(g7
g3
Ntp69
Rp70
(lp71
I882259
ag1
(g11
g3
Ntp72
Rp73
(lp74
I1517532588
aI989172629
abaS'world'
p75
abag1
(g16
g3
Ntp76
Rp77
(lp78
g1
(g20
g3
Ntp79
Rp80
(lp81
F1.1246647834777832
aF0.6390816569328308
aF0.09325690567493439
abag1
(g24
g3
Ntp82
Rp83
(lp84
F0.03059314377605915
aF-0.035236913710832596
aF0.8010485172271729
aF-0.5967778563499451
abababag1
(g2
g3
Ntp85
Rp86
(lp87
g1
(g7
g3
Ntp88
Rp89
(lp90
I882270
ag1
(g11
g3
Ntp91
Rp92
(lp93
I1517532589
aI99086184
abaS'world'
p94
abag1
(g16
g3
Ntp95
Rp96
(lp97
g1
(g20
g3
Ntp98
Rp99
(lp100
F1.1029787063598633
aF0.5894262790679932
aF0.08249854296445847
abag1
(g24
g3
Ntp101
Rp102
(lp103
F-0.05837736278772354
aF-0.09582007676362991
aF0.801978588104248
aF-0.5867206454277039
abababag1
(g2
g3
Ntp104
Rp105
(lp106
g1
(g7
g3
Ntp107
Rp108
(lp109
I882280
ag1
(g11
g3
Ntp110
Rp111
(lp112
I1517532589
aI199171288
abaS'world'
p113
abag1
(g16
g3
Ntp114
Rp115
(lp116
g1
(g20
g3
Ntp117
Rp118
(lp119
F1.0677663087844849
aF0.5764453411102295
aF0.0899643748998642
abag1
(g24
g3
Ntp120
Rp121
(lp122
F-0.06580197811126709
aF0.011314216069877148
aF0.8494827747344971
aF-0.5233748555183411
abababag1
(g2
g3
Ntp123
Rp124
(lp125
g1
(g7
g3
Ntp126
Rp127
(lp128
I882290
ag1
(g11
g3
Ntp129
Rp130
(lp131
I1517532589
aI299224920
abaS'world'
p132
abag1
(g16
g3
Ntp133
Rp134
(lp135
g1
(g20
g3
Ntp136
Rp137
(lp138
F1.0567574501037598
aF0.5629697442054749
aF0.0899757444858551
abag1
(g24
g3
Ntp139
Rp140
(lp141
F0.02759198099374771
aF0.005496902856975794
aF0.8473023176193237
aF-0.5303651690483093
abababag1
(g2
g3
Ntp142
Rp143
(lp144
g1
(g7
g3
Ntp145
Rp146
(lp147
I882299
ag1
(g11
g3
Ntp148
Rp149
(lp150
I1517532589
aI388886148
abaS'world'
p151
abag1
(g16
g3
Ntp152
Rp153
(lp154
g1
(g20
g3
Ntp155
Rp156
(lp157
F1.045811653137207
aF0.5402789115905762
aF0.08677366375923157
abag1
(g24
g3
Ntp158
Rp159
(lp160
F-0.028432002291083336
aF-0.06048833206295967
aF0.8134804368019104
aF-0.5777392387390137
abababag1
(g2
g3
Ntp161
Rp162
(lp163
g1
(g7
g3
Ntp164
Rp165
(lp166
I882310
ag1
(g11
g3
Ntp167
Rp168
(lp169
I1517532589
aI498983825
abaS'world'
p170
abag1
(g16
g3
Ntp171
Rp172
(lp173
g1
(g20
g3
Ntp174
Rp175
(lp176
F1.038612961769104
aF0.5223745107650757
aF0.09956196695566177
abag1
(g24
g3
Ntp177
Rp178
(lp179
F0.12105768918991089
aF-0.018056873232126236
aF0.8457131385803223
aF-0.5194115042686462
abababag1
(g2
g3
Ntp180
Rp181
(lp182
g1
(g7
g3
Ntp183
Rp184
(lp185
I882319
ag1
(g11
g3
Ntp186
Rp187
(lp188
I1517532589
aI588800453
abaS'world'
p189
abag1
(g16
g3
Ntp190
Rp191
(lp192
g1
(g20
g3
Ntp193
Rp194
(lp195
F1.0286250114440918
aF0.49361562728881836
aF0.08239775896072388
abag1
(g24
g3
Ntp196
Rp197
(lp198
F0.029841162264347076
aF-0.07137559354305267
aF0.840312659740448
aF-0.5365536212921143
abababag1
(g2
g3
Ntp199
Rp200
(lp201
g1
(g7
g3
Ntp202
Rp203
(lp204
I882330
ag1
(g11
g3
Ntp205
Rp206
(lp207
I1517532589
aI699028987
abaS'world'
p208
abag1
(g16
g3
Ntp209
Rp210
(lp211
g1
(g20
g3
Ntp212
Rp213
(lp214
F0.9996214509010315
aF0.4693276286125183
aF0.09032599627971649
abag1
(g24
g3
Ntp215
Rp216
(lp217
F0.038314495235681534
aF0.018644286319613457
aF0.7960729002952576
aF-0.6036988496780396
abababag1
(g2
g3
Ntp218
Rp219
(lp220
g1
(g7
g3
Ntp221
Rp222
(lp223
I882339
ag1
(g11
g3
Ntp224
Rp225
(lp226
I1517532589
aI788895810
abaS'world'
p227
abag1
(g16
g3
Ntp228
Rp229
(lp230
g1
(g20
g3
Ntp231
Rp232
(lp233
F0.9749828577041626
aF0.4528791904449463
aF0.08119268715381622
abag1
(g24
g3
Ntp234
Rp235
(lp236
F-0.03433901444077492
aF0.05237308517098427
aF0.8149284720420837
aF-0.5761680603027344
abababag1
(g2
g3
Ntp237
Rp238
(lp239
g1
(g7
g3
Ntp240
Rp241
(lp242
I882350
ag1
(g11
g3
Ntp243
Rp244
(lp245
I1517532589
aI898924989
abaS'world'
p246
abag1
(g16
g3
Ntp247
Rp248
(lp249
g1
(g20
g3
Ntp250
Rp251
(lp252
F0.9545866250991821
aF0.4468801021575928
aF0.08412419259548187
abag1
(g24
g3
Ntp253
Rp254
(lp255
F-0.06020698696374893
aF-0.031775739043951035
aF0.8818416595458984
aF-0.46660560369491577
abababag1
(g2
g3
Ntp256
Rp257
(lp258
g1
(g7
g3
Ntp259
Rp260
(lp261
I882360
ag1
(g11
g3
Ntp262
Rp263
(lp264
I1517532589
aI999120313
abaS'world'
p265
abag1
(g16
g3
Ntp266
Rp267
(lp268
g1
(g20
g3
Ntp269
Rp270
(lp271
F0.9291703701019287
aF0.43410417437553406
aF0.07919846475124359
abag1
(g24
g3
Ntp272
Rp273
(lp274
F-0.003019360825419426
aF0.02812952734529972
aF0.8732896447181702
aF-0.48637935519218445
abababag1
(g2
g3
Ntp275
Rp276
(lp277
g1
(g7
g3
Ntp278
Rp279
(lp280
I882370
ag1
(g11
g3
Ntp281
Rp282
(lp283
I1517532590
aI99019965
abaS'world'
p284
abag1
(g16
g3
Ntp285
Rp286
(lp287
g1
(g20
g3
Ntp288
Rp289
(lp290
F0.913133442401886
aF0.4100930690765381
aF0.0829673707485199
abag1
(g24
g3
Ntp291
Rp292
(lp293
F-0.02872679941356182
aF-0.04663616418838501
aF0.7847908735275269
aF-0.6173354983329773
abababag1
(g2
g3
Ntp294
Rp295
(lp296
g1
(g7
g3
Ntp297
Rp298
(lp299
I882379
ag1
(g11
g3
Ntp300
Rp301
(lp302
I1517532590
aI188823675
abaS'world'
p303
abag1
(g16
g3
Ntp304
Rp305
(lp306
g1
(g20
g3
Ntp307
Rp308
(lp309
F0.8938816785812378
aF0.39868348836898804
aF0.08663545548915863
abag1
(g24
g3
Ntp310
Rp311
(lp312
F-0.025081397965550423
aF0.02139187976717949
aF0.7533527612686157
aF-0.6567898988723755
abababag1
(g2
g3
Ntp313
Rp314
(lp315
g1
(g7
g3
Ntp316
Rp317
(lp318
I882390
ag1
(g11
g3
Ntp319
Rp320
(lp321
I1517532590
aI299005751
abaS'world'
p322
abag1
(g16
g3
Ntp323
Rp324
(lp325
g1
(g20
g3
Ntp326
Rp327
(lp328
F0.8690709471702576
aF0.38228529691696167
aF0.07809079438447952
abag1
(g24
g3
Ntp329
Rp330
(lp331
F-0.13763868808746338
aF0.03255098685622215
aF0.7881300449371338
aF-0.5990385413169861
abababag1
(g2
g3
Ntp332
Rp333
(lp334
g1
(g7
g3
Ntp335
Rp336
(lp337
I882400
ag1
(g11
g3
Ntp338
Rp339
(lp340
I1517532590
aI398947094
abaS'world'
p341
abag1
(g16
g3
Ntp342
Rp343
(lp344
g1
(g20
g3
Ntp345
Rp346
(lp347
F0.8809812068939209
aF0.375031054019928
aF0.08490073680877686
abag1
(g24
g3
Ntp348
Rp349
(lp350
F0.04686456546187401
aF-0.05238155275583267
aF0.7790139317512512
aF-0.6230548024177551
abababag1
(g2
g3
Ntp351
Rp352
(lp353
g1
(g7
g3
Ntp354
Rp355
(lp356
I882410
ag1
(g11
g3
Ntp357
Rp358
(lp359
I1517532590
aI499043304
abaS'world'
p360
abag1
(g16
g3
Ntp361
Rp362
(lp363
g1
(g20
g3
Ntp364
Rp365
(lp366
F0.8681831955909729
aF0.3451007008552551
aF0.0831969752907753
abag1
(g24
g3
Ntp367
Rp368
(lp369
F0.005935974419116974
aF0.03170761838555336
aF0.7471149563789368
aF-0.663911759853363
abababag1
(g2
g3
Ntp370
Rp371
(lp372
g1
(g7
g3
Ntp373
Rp374
(lp375
I882419
ag1
(g11
g3
Ntp376
Rp377
(lp378
I1517532590
aI588909094
abaS'world'
p379
abag1
(g16
g3
Ntp380
Rp381
(lp382
g1
(g20
g3
Ntp383
Rp384
(lp385
F0.8667606711387634
aF0.3189840614795685
aF0.08379330486059189
abag1
(g24
g3
Ntp386
Rp387
(lp388
F-0.0035232987720519304
aF-0.04226192459464073
aF0.6688258647918701
aF-0.7422085404396057
abababag1
(g2
g3
Ntp389
Rp390
(lp391
g1
(g7
g3
Ntp392
Rp393
(lp394
I882430
ag1
(g11
g3
Ntp395
Rp396
(lp397
I1517532590
aI699124803
abaS'world'
p398
abag1
(g16
g3
Ntp399
Rp400
(lp401
g1
(g20
g3
Ntp402
Rp403
(lp404
F0.8505649566650391
aF0.29134753346443176
aF0.08937465399503708
abag1
(g24
g3
Ntp405
Rp406
(lp407
F0.0008834672626107931
aF0.10370180755853653
aF0.6524019837379456
aF-0.7507442831993103
abababag1
(g2
g3
Ntp408
Rp409
(lp410
g1
(g7
g3
Ntp411
Rp412
(lp413
I882440
ag1
(g11
g3
Ntp414
Rp415
(lp416
I1517532590
aI798996640
abaS'world'
p417
abag1
(g16
g3
Ntp418
Rp419
(lp420
g1
(g20
g3
Ntp421
Rp422
(lp423
F0.8432686924934387
aF0.2438126653432846
aF0.07791192829608917
abag1
(g24
g3
Ntp424
Rp425
(lp426
F-0.07596156001091003
aF-0.024659594520926476
aF0.7543793320655823
aF-0.6515625715255737
abababag1
(g2
g3
Ntp427
Rp428
(lp429
g1
(g7
g3
Ntp430
Rp431
(lp432
I882450
ag1
(g11
g3
Ntp433
Rp434
(lp435
I1517532590
aI899122395
abaS'world'
p436
abag1
(g16
g3
Ntp437
Rp438
(lp439
g1
(g20
g3
Ntp440
Rp441
(lp442
F0.832813024520874
aF0.22054526209831238
aF0.08364888280630112
abag1
(g24
g3
Ntp443
Rp444
(lp445
F-0.047788091003894806
aF0.0013135485351085663
aF0.7767359614372253
aF-0.6280094981193542
abababag1
(g2
g3
Ntp446
Rp447
(lp448
g1
(g7
g3
Ntp449
Rp450
(lp451
I882460
ag1
(g11
g3
Ntp452
Rp453
(lp454
I1517532590
aI998857181
abaS'world'
p455
abag1
(g16
g3
Ntp456
Rp457
(lp458
g1
(g20
g3
Ntp459
Rp460
(lp461
F0.8143637180328369
aF0.19498583674430847
aF0.07931366562843323
abag1
(g24
g3
Ntp462
Rp463
(lp464
F-0.060724519193172455
aF-0.01939224638044834
aF0.8096910715103149
aF-0.583384096622467
abababag1
(g2
g3
Ntp465
Rp466
(lp467
g1
(g7
g3
Ntp468
Rp469
(lp470
I882469
ag1
(g11
g3
Ntp471
Rp472
(lp473
I1517532591
aI88877799
abaS'world'
p474
abag1
(g16
g3
Ntp475
Rp476
(lp477
g1
(g20
g3
Ntp478
Rp479
(lp480
F0.810822606086731
aF0.1923152506351471
aF0.08582032471895218
abag1
(g24
g3
Ntp481
Rp482
(lp483
F0.004656239878386259
aF0.029374966397881508
aF0.7957258820533752
aF-0.604926347732544
abababag1
(g2
g3
Ntp484
Rp485
(lp486
g1
(g7
g3
Ntp487
Rp488
(lp489
I882480
ag1
(g11
g3
Ntp490
Rp491
(lp492
I1517532591
aI198888761
abaS'world'
p493
abag1
(g16
g3
Ntp494
Rp495
(lp496
g1
(g20
g3
Ntp497
Rp498
(lp499
F0.8050236105918884
aF0.18332454562187195
aF0.07789064943790436
abag1
(g24
g3
Ntp500
Rp501
(lp502
F-0.014289753511548042
aF0.06648654490709305
aF0.8252489566802979
aF-0.5606598854064941
abababag1
(g2
g3
Ntp503
Rp504
(lp505
g1
(g7
g3
Ntp506
Rp507
(lp508
I882490
ag1
(g11
g3
Ntp509
Rp510
(lp511
I1517532591
aI299129800
abaS'world'
p512
abag1
(g16
g3
Ntp513
Rp514
(lp515
g1
(g20
g3
Ntp516
Rp517
(lp518
F0.8117372393608093
aF0.17433276772499084
aF0.08743907511234283
abag1
(g24
g3
Ntp519
Rp520
(lp521
F0.07146412879228592
aF0.017834248021245003
aF0.7824102640151978
aF-0.6183924078941345
abababag1
(g2
g3
Ntp522
Rp523
(lp524
g1
(g7
g3
Ntp525
Rp526
(lp527
I882500
ag1
(g11
g3
Ntp528
Rp529
(lp530
I1517532591
aI398977876
abaS'world'
p531
abag1
(g16
g3
Ntp532
Rp533
(lp534
g1
(g20
g3
Ntp535
Rp536
(lp537
F0.7907108068466187
aF0.1477871984243393
aF0.0857326090335846
abag1
(g24
g3
Ntp538
Rp539
(lp540
F0.09007146954536438
aF0.09382200986146927
aF0.832468569278717
aF-0.5385913848876953
abababag1
(g2
g3
Ntp541
Rp542
(lp543
g1
(g7
g3
Ntp544
Rp545
(lp546
I882509
ag1
(g11
g3
Ntp547
Rp548
(lp549
I1517532591
aI488831733
abaS'world'
p550
abag1
(g16
g3
Ntp551
Rp552
(lp553
g1
(g20
g3
Ntp554
Rp555
(lp556
F0.7683047652244568
aF0.1128048300743103
aF0.08707655966281891
abag1
(g24
g3
Ntp557
Rp558
(lp559
F-0.02287444658577442
aF0.031136969104409218
aF0.8871847987174988
aF-0.45979371666908264
abababag1
(g2
g3
Ntp560
Rp561
(lp562
g1
(g7
g3
Ntp563
Rp564
(lp565
I882520
ag1
(g11
g3
Ntp566
Rp567
(lp568
I1517532591
aI598972284
abaS'world'
p569
abag1
(g16
g3
Ntp570
Rp571
(lp572
g1
(g20
g3
Ntp573
Rp574
(lp575
F0.7339734435081482
aF0.07942107319831848
aF0.08206016570329666
abag1
(g24
g3
Ntp576
Rp577
(lp578
F-0.07648605108261108
aF-0.09630096703767776
aF0.9524020552635193
aF-0.27893808484077454
abababag1
(g2
g3
Ntp579
Rp580
(lp581
g1
(g7
g3
Ntp582
Rp583
(lp584
I882530
ag1
(g11
g3
Ntp585
Rp586
(lp587
I1517532591
aI698970411
abaS'world'
p588
abag1
(g16
g3
Ntp589
Rp590
(lp591
g1
(g20
g3
Ntp592
Rp593
(lp594
F0.7094063758850098
aF0.08288080245256424
aF0.08216042816638947
abag1
(g24
g3
Ntp595
Rp596
(lp597
F0.0017222169553861022
aF-0.02533116191625595
aF0.8806914687156677
aF-0.4730093777179718
abababag1
(g2
g3
Ntp598
Rp599
(lp600
g1
(g7
g3
Ntp601
Rp602
(lp603
I882540
ag1
(g11
g3
Ntp604
Rp605
(lp606
I1517532591
aI798977322
abaS'world'
p607
abag1
(g16
g3
Ntp608
Rp609
(lp610
g1
(g20
g3
Ntp611
Rp612
(lp613
F0.6906095743179321
aF0.07231809198856354
aF0.08348941057920456
abag1
(g24
g3
Ntp614
Rp615
(lp616
F0.01704338565468788
aF-0.09819868206977844
aF0.8836910724639893
aF-0.45733657479286194
abababag1
(g2
g3
Ntp617
Rp618
(lp619
g1
(g7
g3
Ntp620
Rp621
(lp622
I882549
ag1
(g11
g3
Ntp623
Rp624
(lp625
I1517532591
aI888916687
abaS'world'
p626
abag1
(g16
g3
Ntp627
Rp628
(lp629
g1
(g20
g3
Ntp630
Rp631
(lp632
F0.6677298545837402
aF0.056658871471881866
aF0.08387754112482071
abag1
(g24
g3
Ntp633
Rp634
(lp635
F-0.00033365999115630984
aF-0.0039474209770560265
aF0.8695442080497742
aF-0.49383923411369324
abababag1
(g2
g3
Ntp636
Rp637
(lp638
g1
(g7
g3
Ntp639
Rp640
(lp641
I882560
ag1
(g11
g3
Ntp642
Rp643
(lp644
I1517532591
aI999115442
abaS'world'
p645
abag1
(g16
g3
Ntp646
Rp647
(lp648
g1
(g20
g3
Ntp649
Rp650
(lp651
F0.6429159045219421
aF0.04565120115876198
aF0.0794842541217804
abag1
(g24
g3
Ntp652
Rp653
(lp654
F0.027917854487895966
aF-0.01709647662937641
aF0.919554591178894
aF-0.3915962874889374
abababag1
(g2
g3
Ntp655
Rp656
(lp657
g1
(g7
g3
Ntp658
Rp659
(lp660
I882570
ag1
(g11
g3
Ntp661
Rp662
(lp663
I1517532592
aI98924055
abaS'world'
p664
abag1
(g16
g3
Ntp665
Rp666
(lp667
g1
(g20
g3
Ntp668
Rp669
(lp670
F0.6180471181869507
aF0.02809925749897957
aF0.08790410310029984
abag1
(g24
g3
Ntp671
Rp672
(lp673
F-0.0023909437004476786
aF-0.11549193412065506
aF0.9518746137619019
aF-0.2838849425315857
abababag1
(g2
g3
Ntp674
Rp675
(lp676
g1
(g7
g3
Ntp677
Rp678
(lp679
I882581
ag1
(g11
g3
Ntp680
Rp681
(lp682
I1517532592
aI208913147
abaS'world'
p683
abag1
(g16
g3
Ntp684
Rp685
(lp686
g1
(g20
g3
Ntp687
Rp688
(lp689
F0.5837921500205994
aF0.030702874064445496
aF0.08196412771940231
abag1
(g24
g3
Ntp690
Rp691
(lp692
F0.0336667001247406
aF-0.05714678019285202
aF0.9850639700889587
aF-0.15890170633792877
abababag1
(g2
g3
Ntp693
Rp694
(lp695
g1
(g7
g3
Ntp696
Rp697
(lp698
I882589
ag1
(g11
g3
Ntp699
Rp700
(lp701
I1517532592
aI288789989
abaS'world'
p702
abag1
(g16
g3
Ntp703
Rp704
(lp705
g1
(g20
g3
Ntp706
Rp707
(lp708
F0.557695746421814
aF0.03254749998450279
aF0.08697973191738129
abag1
(g24
g3
Ntp709
Rp710
(lp711
F0.033176060765981674
aF-0.0005547651671804488
aF0.9862331748008728
aF-0.16199764609336853
abababag1
(g2
g3
Ntp712
Rp713
(lp714
g1
(g7
g3
Ntp715
Rp716
(lp717
I882600
ag1
(g11
g3
Ntp718
Rp719
(lp720
I1517532592
aI398930783
abaS'world'
p721
abag1
(g16
g3
Ntp722
Rp723
(lp724
g1
(g20
g3
Ntp725
Rp726
(lp727
F0.5120759010314941
aF0.03766931965947151
aF0.08268887549638748
abag1
(g24
g3
Ntp728
Rp729
(lp730
F-0.04951512813568115
aF0.0068285902962088585
aF0.9980000257492065
aF-0.03869955241680145
abababag1
(g2
g3
Ntp731
Rp732
(lp733
g1
(g7
g3
Ntp734
Rp735
(lp736
I882610
ag1
(g11
g3
Ntp737
Rp738
(lp739
I1517532592
aI498926280
abaS'world'
p740
abag1
(g16
g3
Ntp741
Rp742
(lp743
g1
(g20
g3
Ntp744
Rp745
(lp746
F0.4806969165802002
aF0.04619099572300911
aF0.08355380594730377
abag1
(g24
g3
Ntp747
Rp748
(lp749
F-0.00764310359954834
aF-0.05421442165970802
aF0.9983509182929993
aF0.01725849322974682
abababag1
(g2
g3
Ntp750
Rp751
(lp752
g1
(g7
g3
Ntp753
Rp754
(lp755
I882620
ag1
(g11
g3
Ntp756
Rp757
(lp758
I1517532592
aI599017239
abaS'world'
p759
abag1
(g16
g3
Ntp760
Rp761
(lp762
g1
(g20
g3
Ntp763
Rp764
(lp765
F0.4595562517642975
aF0.04729997739195824
aF0.08212799578905106
abag1
(g24
g3
Ntp766
Rp767
(lp768
F-0.024620624259114265
aF-0.07847179472446442
aF0.9885774850845337
aF-0.12629596889019012
abababag1
(g2
g3
Ntp769
Rp770
(lp771
g1
(g7
g3
Ntp772
Rp773
(lp774
I882629
ag1
(g11
g3
Ntp775
Rp776
(lp777
I1517532592
aI688909630
abaS'world'
p778
abag1
(g16
g3
Ntp779
Rp780
(lp781
g1
(g20
g3
Ntp782
Rp783
(lp784
F0.4286815822124481
aF0.04998170956969261
aF0.0820152759552002
abag1
(g24
g3
Ntp785
Rp786
(lp787
F-0.05513100326061249
aF0.027259744703769684
aF0.9716081023216248
aF-0.22846291959285736
abababag1
(g2
g3
Ntp788
Rp789
(lp790
g1
(g7
g3
Ntp791
Rp792
(lp793
I882640
ag1
(g11
g3
Ntp794
Rp795
(lp796
I1517532592
aI798828134
abaS'world'
p797
abag1
(g16
g3
Ntp798
Rp799
(lp800
g1
(g20
g3
Ntp801
Rp802
(lp803
F0.37825408577919006
aF0.04236520081758499
aF0.07761797308921814
abag1
(g24
g3
Ntp804
Rp805
(lp806
F-0.02738003432750702
aF0.10966333001852036
aF0.965345561504364
aF-0.23522807657718658
abababag1
(g2
g3
Ntp807
Rp808
(lp809
g1
(g7
g3
Ntp810
Rp811
(lp812
I882650
ag1
(g11
g3
Ntp813
Rp814
(lp815
I1517532592
aI898927307
abaS'world'
p816
abag1
(g16
g3
Ntp817
Rp818
(lp819
g1
(g20
g3
Ntp820
Rp821
(lp822
F0.3516557514667511
aF0.03826218470931053
aF0.0841526985168457
abag1
(g24
g3
Ntp823
Rp824
(lp825
F-0.009246238507330418
aF0.03278098627924919
aF0.9889671206474304
aF-0.14416635036468506
abababag1
(g2
g3
Ntp826
Rp827
(lp828
g1
(g7
g3
Ntp829
Rp830
(lp831
I882660
ag1
(g11
g3
Ntp832
Rp833
(lp834
I1517532592
aI999008510
abaS'world'
p835
abag1
(g16
g3
Ntp836
Rp837
(lp838
g1
(g20
g3
Ntp839
Rp840
(lp841
F0.31807664036750793
aF0.03273729234933853
aF0.09013523906469345
abag1
(g24
g3
Ntp842
Rp843
(lp844
F-0.042041707783937454
aF-0.055500999093055725
aF0.9941124320030212
aF-0.0830213651061058
abababag1
(g2
g3
Ntp845
Rp846
(lp847
g1
(g7
g3
Ntp848
Rp849
(lp850
I882669
ag1
(g11
g3
Ntp851
Rp852
(lp853
I1517532593
aI88748377
abaS'world'
p854
abag1
(g16
g3
Ntp855
Rp856
(lp857
g1
(g20
g3
Ntp858
Rp859
(lp860
F0.2872268855571747
aF0.03801523894071579
aF0.08214610069990158
abag1
(g24
g3
Ntp861
Rp862
(lp863
F0.011344165541231632
aF0.02589241787791252
aF0.9898564219474792
aF-0.13923050463199615
abababag1
(g2
g3
Ntp864
Rp865
(lp866
g1
(g7
g3
Ntp867
Rp868
(lp869
I882680
ag1
(g11
g3
Ntp870
Rp871
(lp872
I1517532593
aI198864904
abaS'world'
p873
abag1
(g16
g3
Ntp874
Rp875
(lp876
g1
(g20
g3
Ntp877
Rp878
(lp879
F0.25507327914237976
aF0.042582277208566666
aF0.08499108254909515
abag1
(g24
g3
Ntp880
Rp881
(lp882
F-0.03149750456213951
aF0.10604517161846161
aF0.9716641306877136
aF-0.20888087153434753
abababag1
(g2
g3
Ntp883
Rp884
(lp885
g1
(g7
g3
Ntp886
Rp887
(lp888
I882691
ag1
(g11
g3
Ntp889
Rp890
(lp891
I1517532593
aI308876366
abaS'world'
p892
abag1
(g16
g3
Ntp893
Rp894
(lp895
g1
(g20
g3
Ntp896
Rp897
(lp898
F0.23334822058677673
aF0.04345268756151199
aF0.08122518658638
abag1
(g24
g3
Ntp899
Rp900
(lp901
F-0.049065567553043365
aF0.0014899892266839743
aF0.9826949238777161
aF-0.17860858142375946
abababag1
(g2
g3
Ntp902
Rp903
(lp904
g1
(g7
g3
Ntp905
Rp906
(lp907
I882696
ag1
(g11
g3
Ntp908
Rp909
(lp910
I1517532593
aI358842419
abaS'world'
p911
abag1
(g16
g3
Ntp912
Rp913
(lp914
g1
(g20
g3
Ntp915
Rp916
(lp917
F0.22860011458396912
aF0.040816642343997955
aF0.09411335736513138
abag1
(g24
g3
Ntp918
Rp919
(lp920
F0.058597542345523834
aF-0.015775101259350777
aF0.9803194403648376
aF-0.1878601312637329
abababag1
(g2
g3
Ntp921
Rp922
(lp923
g1
(g7
g3
Ntp924
Rp925
(lp926
I882706
ag1
(g11
g3
Ntp927
Rp928
(lp929
I1517532593
aI458916882
abaS'world'
p930
abag1
(g16
g3
Ntp931
Rp932
(lp933
g1
(g20
g3
Ntp934
Rp935
(lp936
F0.20302344858646393
aF0.03684645891189575
aF0.08085073530673981
abag1
(g24
g3
Ntp937
Rp938
(lp939
F-0.018621930852532387
aF0.010052497498691082
aF0.9930216670036316
aF-0.1160183772444725
abababag1
(g2
g3
Ntp940
Rp941
(lp942
g1
(g7
g3
Ntp943
Rp944
(lp945
I882716
ag1
(g11
g3
Ntp946
Rp947
(lp948
I1517532593
aI558832647
abaS'world'
p949
abag1
(g16
g3
Ntp950
Rp951
(lp952
g1
(g20
g3
Ntp953
Rp954
(lp955
F0.1767536699771881
aF0.05172911286354065
aF0.0931113064289093
abag1
(g24
g3
Ntp956
Rp957
(lp958
F-0.002827850403264165
aF0.0922158882021904
aF0.9919247627258301
aF-0.08702563494443893
abababa.