(lp0
ccopy_reg
_reconstructor
p1
(cgeometry_msgs.msg._PoseStamped
PoseStamped
p2
c__builtin__
object
p3
Ntp4
Rp5
(lp6
g1
(cstd_msgs.msg._Header
Header
p7
g3
Ntp8
Rp9
(lp10
I604094
ag1
(cgenpy.rostime
Time
p11
g3
Ntp12
Rp13
(lp14
I1516406521
aI743227374
abaS'world'
p15
abag1
(cgeometry_msgs.msg._Pose
Pose
p16
g3
Ntp17
Rp18
(lp19
g1
(cgeometry_msgs.msg._Point
Point
p20
g3
Ntp21
Rp22
(lp23
F1.0451396703720093
aF-0.051045581698417664
aF0.059556957334280014
abag1
(cgeometry_msgs.msg._Quaternion
Quaternion
p24
g3
Ntp25
Rp26
(lp27
F-0.021197816357016563
aF0.0008953084470704198
aF-0.46577218174934387
aF0.8846502900123596
abababag1
(g2
g3
Ntp28
Rp29
(lp30
g1
(g7
g3
Ntp31
Rp32
(lp33
I604100
ag1
(g11
g3
Ntp34
Rp35
(lp36
I1516406521
aI803312884
abaS'world'
p37
abag1
(g16
g3
Ntp38
Rp39
(lp40
g1
(g20
g3
Ntp41
Rp42
(lp43
F1.0448192358016968
aF-0.05170657858252525
aF0.059890419244766235
abag1
(g24
g3
Ntp44
Rp45
(lp46
F-0.018304493278265
aF0.0025022034533321857
aF-0.4645944833755493
aF0.8853309154510498
abababag1
(g2
g3
Ntp47
Rp48
(lp49
g1
(g7
g3
Ntp50
Rp51
(lp52
I604108
ag1
(g11
g3
Ntp53
Rp54
(lp55
I1516406521
aI883134977
abaS'world'
p56
abag1
(g16
g3
Ntp57
Rp58
(lp59
g1
(g20
g3
Ntp60
Rp61
(lp62
F1.0451469421386719
aF-0.050832632929086685
aF0.05913376063108444
abag1
(g24
g3
Ntp63
Rp64
(lp65
F-0.021553311496973038
aF0.0009073927067220211
aF-0.4658057391643524
aF0.8846240043640137
abababag1
(g2
g3
Ntp66
Rp67
(lp68
g1
(g7
g3
Ntp69
Rp70
(lp71
I604117
ag1
(g11
g3
Ntp72
Rp73
(lp74
I1516406521
aI973145570
abaS'world'
p75
abag1
(g16
g3
Ntp76
Rp77
(lp78
g1
(g20
g3
Ntp79
Rp80
(lp81
F1.056716799736023
aF-0.054139167070388794
aF0.06742484867572784
abag1
(g24
g3
Ntp82
Rp83
(lp84
F-0.15727564692497253
aF0.0010107893031090498
aF-0.4512679874897003
aF0.8784193992614746
abababag1
(g2
g3
Ntp85
Rp86
(lp87
g1
(g7
g3
Ntp88
Rp89
(lp90
I604128
ag1
(g11
g3
Ntp91
Rp92
(lp93
I1516406522
aI83287157
abaS'world'
p94
abag1
(g16
g3
Ntp95
Rp96
(lp97
g1
(g20
g3
Ntp98
Rp99
(lp100
F1.075682520866394
aF-0.08246001601219177
aF0.05871811881661415
abag1
(g24
g3
Ntp101
Rp102
(lp103
F0.03503291681408882
aF-0.05540869012475014
aF-0.653174102306366
aF0.7543648481369019
abababag1
(g2
g3
Ntp104
Rp105
(lp106
g1
(g7
g3
Ntp107
Rp108
(lp109
I604138
ag1
(g11
g3
Ntp110
Rp111
(lp112
I1516406522
aI183145713
abaS'world'
p113
abag1
(g16
g3
Ntp114
Rp115
(lp116
g1
(g20
g3
Ntp117
Rp118
(lp119
F1.0782203674316406
aF-0.10485820472240448
aF0.06862055510282516
abag1
(g24
g3
Ntp120
Rp121
(lp122
F-0.033911388367414474
aF-0.037673868238925934
aF-0.7038041353225708
aF0.7085834741592407
abababag1
(g2
g3
Ntp123
Rp124
(lp125
g1
(g7
g3
Ntp126
Rp127
(lp128
I604148
ag1
(g11
g3
Ntp129
Rp130
(lp131
I1516406522
aI283284754
abaS'world'
p132
abag1
(g16
g3
Ntp133
Rp134
(lp135
g1
(g20
g3
Ntp136
Rp137
(lp138
F1.0630484819412231
aF-0.15165388584136963
aF0.06429187208414078
abag1
(g24
g3
Ntp139
Rp140
(lp141
F0.0558614656329155
aF0.0037144089583307505
aF-0.7693713903427124
aF0.6363437175750732
abababag1
(g2
g3
Ntp142
Rp143
(lp144
g1
(g7
g3
Ntp145
Rp146
(lp147
I604158
ag1
(g11
g3
Ntp148
Rp149
(lp150
I1516406522
aI383191954
abaS'world'
p151
abag1
(g16
g3
Ntp152
Rp153
(lp154
g1
(g20
g3
Ntp155
Rp156
(lp157
F1.0386674404144287
aF-0.19626200199127197
aF0.0624944344162941
abag1
(g24
g3
Ntp158
Rp159
(lp160
F0.03869067505002022
aF-0.011885281652212143
aF-0.8489362597465515
aF0.5269430875778198
abababag1
(g2
g3
Ntp161
Rp162
(lp163
g1
(g7
g3
Ntp164
Rp165
(lp166
I604168
ag1
(g11
g3
Ntp167
Rp168
(lp169
I1516406522
aI483227403
abaS'world'
p170
abag1
(g16
g3
Ntp171
Rp172
(lp173
g1
(g20
g3
Ntp174
Rp175
(lp176
F1.0115655660629272
aF-0.23685583472251892
aF0.059065479785203934
abag1
(g24
g3
Ntp177
Rp178
(lp179
F-0.026540866121649742
aF0.11510463804006577
aF-0.8977174758911133
aF0.42444050312042236
abababag1
(g2
g3
Ntp180
Rp181
(lp182
g1
(g7
g3
Ntp183
Rp184
(lp185
I604178
ag1
(g11
g3
Ntp186
Rp187
(lp188
I1516406522
aI583254060
abaS'world'
p189
abag1
(g16
g3
Ntp190
Rp191
(lp192
g1
(g20
g3
Ntp193
Rp194
(lp195
F0.9795127511024475
aF-0.2617948353290558
aF0.05648789927363396
abag1
(g24
g3
Ntp196
Rp197
(lp198
F-0.05395503714680672
aF-0.0353454127907753
aF-0.9018486738204956
aF0.4272101819515228
abababag1
(g2
g3
Ntp199
Rp200
(lp201
g1
(g7
g3
Ntp202
Rp203
(lp204
I604189
ag1
(g11
g3
Ntp205
Rp206
(lp207
I1516406522
aI693142000
abaS'world'
p208
abag1
(g16
g3
Ntp209
Rp210
(lp211
g1
(g20
g3
Ntp212
Rp213
(lp214
F0.9566811919212341
aF-0.29856640100479126
aF0.0725889801979065
abag1
(g24
g3
Ntp215
Rp216
(lp217
F-0.06779970228672028
aF-0.03677619993686676
aF-0.8889928460121155
aF0.45137840509414673
abababag1
(g2
g3
Ntp218
Rp219
(lp220
g1
(g7
g3
Ntp221
Rp222
(lp223
I604198
ag1
(g11
g3
Ntp224
Rp225
(lp226
I1516406522
aI783332040
abaS'world'
p227
abag1
(g16
g3
Ntp228
Rp229
(lp230
g1
(g20
g3
Ntp231
Rp232
(lp233
F0.937015175819397
aF-0.34411799907684326
aF0.058996643871068954
abag1
(g24
g3
Ntp234
Rp235
(lp236
F0.005173628218472004
aF0.07299508899450302
aF-0.7926896214485168
aF0.6052173376083374
abababag1
(g2
g3
Ntp237
Rp238
(lp239
g1
(g7
g3
Ntp240
Rp241
(lp242
I604207
ag1
(g11
g3
Ntp243
Rp244
(lp245
I1516406522
aI873070734
abaS'world'
p246
abag1
(g16
g3
Ntp247
Rp248
(lp249
g1
(g20
g3
Ntp250
Rp251
(lp252
F0.9238530397415161
aF-0.39218762516975403
aF0.056399714201688766
abag1
(g24
g3
Ntp253
Rp254
(lp255
F0.02019892819225788
aF-0.045186832547187805
aF-0.7144209742546082
aF0.6979634165763855
abababag1
(g2
g3
Ntp256
Rp257
(lp258
g1
(g7
g3
Ntp259
Rp260
(lp261
I604218
ag1
(g11
g3
Ntp262
Rp263
(lp264
I1516406522
aI983190565
abaS'world'
p265
abag1
(g16
g3
Ntp266
Rp267
(lp268
g1
(g20
g3
Ntp269
Rp270
(lp271
F0.9065976738929749
aF-0.4210244119167328
aF0.07294698059558868
abag1
(g24
g3
Ntp272
Rp273
(lp274
F-0.20091208815574646
aF-0.03845294192433357
aF-0.7723913788795471
aF0.6013046503067017
abababag1
(g2
g3
Ntp275
Rp276
(lp277
g1
(g7
g3
Ntp278
Rp279
(lp280
I604229
ag1
(g11
g3
Ntp281
Rp282
(lp283
I1516406523
aI93129736
abaS'world'
p284
abag1
(g16
g3
Ntp285
Rp286
(lp287
g1
(g20
g3
Ntp288
Rp289
(lp290
F0.8813108205795288
aF-0.45243099331855774
aF0.06583476811647415
abag1
(g24
g3
Ntp291
Rp292
(lp293
F-0.027308421209454536
aF-0.03677016496658325
aF-0.7973536252975464
aF0.6017720103263855
abababag1
(g2
g3
Ntp294
Rp295
(lp296
g1
(g7
g3
Ntp297
Rp298
(lp299
I604238
ag1
(g11
g3
Ntp300
Rp301
(lp302
I1516406523
aI183131015
abaS'world'
p303
abag1
(g16
g3
Ntp304
Rp305
(lp306
g1
(g20
g3
Ntp307
Rp308
(lp309
F0.8778855800628662
aF-0.48844078183174133
aF0.06461112201213837
abag1
(g24
g3
Ntp310
Rp311
(lp312
F-0.14159028232097626
aF-0.003638274036347866
aF-0.8126867413520813
aF0.5652250647544861
abababag1
(g2
g3
Ntp313
Rp314
(lp315
g1
(g7
g3
Ntp316
Rp317
(lp318
I604247
ag1
(g11
g3
Ntp319
Rp320
(lp321
I1516406523
aI273014590
abaS'world'
p322
abag1
(g16
g3
Ntp323
Rp324
(lp325
g1
(g20
g3
Ntp326
Rp327
(lp328
F0.8653694987297058
aF-0.5251939296722412
aF0.0663323923945427
abag1
(g24
g3
Ntp329
Rp330
(lp331
F-0.04633893445134163
aF-0.015751421451568604
aF-0.757950484752655
aF0.6504733562469482
abababag1
(g2
g3
Ntp332
Rp333
(lp334
g1
(g7
g3
Ntp335
Rp336
(lp337
I604258
ag1
(g11
g3
Ntp338
Rp339
(lp340
I1516406523
aI383230572
abaS'world'
p341
abag1
(g16
g3
Ntp342
Rp343
(lp344
g1
(g20
g3
Ntp345
Rp346
(lp347
F0.8558310866355896
aF-0.5674752593040466
aF0.05291342735290527
abag1
(g24
g3
Ntp348
Rp349
(lp350
F0.007486497517675161
aF0.011580457910895348
aF-0.6940661668777466
aF0.7197791337966919
abababag1
(g2
g3
Ntp351
Rp352
(lp353
g1
(g7
g3
Ntp354
Rp355
(lp356
I604268
ag1
(g11
g3
Ntp357
Rp358
(lp359
I1516406523
aI483217794
abaS'world'
p360
abag1
(g16
g3
Ntp361
Rp362
(lp363
g1
(g20
g3
Ntp364
Rp365
(lp366
F0.8521130681037903
aF-0.5869976878166199
aF0.07205381989479065
abag1
(g24
g3
Ntp367
Rp368
(lp369
F-0.11530215293169022
aF0.011134514585137367
aF-0.7510967254638672
aF0.6499501466751099
abababag1
(g2
g3
Ntp370
Rp371
(lp372
g1
(g7
g3
Ntp373
Rp374
(lp375
I604278
ag1
(g11
g3
Ntp376
Rp377
(lp378
I1516406523
aI583251141
abaS'world'
p379
abag1
(g16
g3
Ntp380
Rp381
(lp382
g1
(g20
g3
Ntp383
Rp384
(lp385
F0.8405073881149292
aF-0.6118874549865723
aF0.06284325569868088
abag1
(g24
g3
Ntp386
Rp387
(lp388
F-0.050226908177137375
aF0.028119664639234543
aF-0.7236492037773132
aF0.6877633333206177
abababag1
(g2
g3
Ntp389
Rp390
(lp391
g1
(g7
g3
Ntp392
Rp393
(lp394
I604288
ag1
(g11
g3
Ntp395
Rp396
(lp397
I1516406523
aI683173947
abaS'world'
p398
abag1
(g16
g3
Ntp399
Rp400
(lp401
g1
(g20
g3
Ntp402
Rp403
(lp404
F0.8210268616676331
aF-0.6522818207740784
aF0.06222939491271973
abag1
(g24
g3
Ntp405
Rp406
(lp407
F0.048096925020217896
aF-0.10350216925144196
aF-0.7198541760444641
aF0.6846780180931091
abababag1
(g2
g3
Ntp408
Rp409
(lp410
g1
(g7
g3
Ntp411
Rp412
(lp413
I604298
ag1
(g11
g3
Ntp414
Rp415
(lp416
I1516406523
aI783187800
abaS'world'
p417
abag1
(g16
g3
Ntp418
Rp419
(lp420
g1
(g20
g3
Ntp421
Rp422
(lp423
F0.8259738683700562
aF-0.6821238398551941
aF0.07028040289878845
abag1
(g24
g3
Ntp424
Rp425
(lp426
F-0.05054302513599396
aF0.005808098707348108
aF-0.7458494901657104
aF0.6641688942909241
abababag1
(g2
g3
Ntp427
Rp428
(lp429
g1
(g7
g3
Ntp430
Rp431
(lp432
I604308
ag1
(g11
g3
Ntp433
Rp434
(lp435
I1516406523
aI883122352
abaS'world'
p436
abag1
(g16
g3
Ntp437
Rp438
(lp439
g1
(g20
g3
Ntp440
Rp441
(lp442
F0.8282062411308289
aF-0.7121947407722473
aF0.0593775250017643
abag1
(g24
g3
Ntp443
Rp444
(lp445
F-0.07360918074846268
aF-0.05741606652736664
aF-0.7653876543045044
aF0.636762797832489
abababag1
(g2
g3
Ntp446
Rp447
(lp448
g1
(g7
g3
Ntp449
Rp450
(lp451
I604318
ag1
(g11
g3
Ntp452
Rp453
(lp454
I1516406523
aI983101156
abaS'world'
p455
abag1
(g16
g3
Ntp456
Rp457
(lp458
g1
(g20
g3
Ntp459
Rp460
(lp461
F0.809199869632721
aF-0.7422619462013245
aF0.06964090466499329
abag1
(g24
g3
Ntp462
Rp463
(lp464
F-0.02606572024524212
aF-0.05094736069440842
aF-0.7872558832168579
aF0.6139649748802185
abababag1
(g2
g3
Ntp465
Rp466
(lp467
g1
(g7
g3
Ntp468
Rp469
(lp470
I604327
ag1
(g11
g3
Ntp471
Rp472
(lp473
I1516406524
aI73170478
abaS'world'
p474
abag1
(g16
g3
Ntp475
Rp476
(lp477
g1
(g20
g3
Ntp478
Rp479
(lp480
F0.791617751121521
aF-0.7703534960746765
aF0.0583893358707428
abag1
(g24
g3
Ntp481
Rp482
(lp483
F0.037367504090070724
aF0.02502603270113468
aF-0.8223459720611572
aF0.5672075748443604
abababag1
(g2
g3
Ntp484
Rp485
(lp486
g1
(g7
g3
Ntp487
Rp488
(lp489
I604338
ag1
(g11
g3
Ntp490
Rp491
(lp492
I1516406524
aI183242989
abaS'world'
p493
abag1
(g16
g3
Ntp494
Rp495
(lp496
g1
(g20
g3
Ntp497
Rp498
(lp499
F0.7693602442741394
aF-0.8022734522819519
aF0.06258102506399155
abag1
(g24
g3
Ntp500
Rp501
(lp502
F-0.025683240965008736
aF-0.0678606852889061
aF-0.860451340675354
aF0.5043399930000305
abababag1
(g2
g3
Ntp503
Rp504
(lp505
g1
(g7
g3
Ntp506
Rp507
(lp508
I604348
ag1
(g11
g3
Ntp509
Rp510
(lp511
I1516406524
aI283194417
abaS'world'
p512
abag1
(g16
g3
Ntp513
Rp514
(lp515
g1
(g20
g3
Ntp516
Rp517
(lp518
F0.7483288049697876
aF-0.8459176421165466
aF0.06596463918685913
abag1
(g24
g3
Ntp519
Rp520
(lp521
F-0.04569954425096512
aF0.10572069883346558
aF-0.8915833234786987
aF0.43796560168266296
abababag1
(g2
g3
Ntp522
Rp523
(lp524
g1
(g7
g3
Ntp525
Rp526
(lp527
I604358
ag1
(g11
g3
Ntp528
Rp529
(lp530
I1516406524
aI383125041
abaS'world'
p531
abag1
(g16
g3
Ntp532
Rp533
(lp534
g1
(g20
g3
Ntp535
Rp536
(lp537
F0.716479480266571
aF-0.8873781561851501
aF0.058143746107816696
abag1
(g24
g3
Ntp538
Rp539
(lp540
F-0.010659262537956238
aF0.09618721157312393
aF-0.9085699319839478
aF0.40636831521987915
abababag1
(g2
g3
Ntp541
Rp542
(lp543
g1
(g7
g3
Ntp544
Rp545
(lp546
I604368
ag1
(g11
g3
Ntp547
Rp548
(lp549
I1516406524
aI483216925
abaS'world'
p550
abag1
(g16
g3
Ntp551
Rp552
(lp553
g1
(g20
g3
Ntp554
Rp555
(lp556
F0.6647763252258301
aF-0.8950856924057007
aF0.06301700323820114
abag1
(g24
g3
Ntp557
Rp558
(lp559
F-0.05027008429169655
aF-0.023006068542599678
aF-0.9156741499900818
aF0.3981013000011444
abababag1
(g2
g3
Ntp560
Rp561
(lp562
g1
(g7
g3
Ntp563
Rp564
(lp565
I604378
ag1
(g11
g3
Ntp566
Rp567
(lp568
I1516406524
aI583106930
abaS'world'
p569
abag1
(g16
g3
Ntp570
Rp571
(lp572
g1
(g20
g3
Ntp573
Rp574
(lp575
F0.6177541613578796
aF-0.9234533309936523
aF0.05177320912480354
abag1
(g24
g3
Ntp576
Rp577
(lp578
F0.036854710429906845
aF0.014883933588862419
aF-0.9901013374328613
aF0.13460920751094818
abababag1
(g2
g3
Ntp579
Rp580
(lp581
g1
(g7
g3
Ntp582
Rp583
(lp584
I604388
ag1
(g11
g3
Ntp585
Rp586
(lp587
I1516406524
aI683069433
abaS'world'
p588
abag1
(g16
g3
Ntp589
Rp590
(lp591
g1
(g20
g3
Ntp592
Rp593
(lp594
F0.5918165445327759
aF-0.9413144588470459
aF0.06613033264875412
abag1
(g24
g3
Ntp595
Rp596
(lp597
F-0.0014291380066424608
aF-0.0982067883014679
aF-0.9536877870559692
aF0.2843113839626312
abababag1
(g2
g3
Ntp598
Rp599
(lp600
g1
(g7
g3
Ntp601
Rp602
(lp603
I604398
ag1
(g11
g3
Ntp604
Rp605
(lp606
I1516406524
aI783063130
abaS'world'
p607
abag1
(g16
g3
Ntp608
Rp609
(lp610
g1
(g20
g3
Ntp611
Rp612
(lp613
F0.575359046459198
aF-0.9667097330093384
aF0.06361208111047745
abag1
(g24
g3
Ntp614
Rp615
(lp616
F-0.09679829329252243
aF0.02567151188850403
aF-0.9250801205635071
aF0.3663301169872284
abababag1
(g2
g3
Ntp617
Rp618
(lp619
g1
(g7
g3
Ntp620
Rp621
(lp622
I604408
ag1
(g11
g3
Ntp623
Rp624
(lp625
I1516406524
aI883030824
abaS'world'
p626
abag1
(g16
g3
Ntp627
Rp628
(lp629
g1
(g20
g3
Ntp630
Rp631
(lp632
F0.5651906728744507
aF-1.0075939893722534
aF0.06282781809568405
abag1
(g24
g3
Ntp633
Rp634
(lp635
F-0.08345580846071243
aF0.23429380357265472
aF-0.8536478877067566
aF0.45763179659843445
abababag1
(g2
g3
Ntp636
Rp637
(lp638
g1
(g7
g3
Ntp639
Rp640
(lp641
I604418
ag1
(g11
g3
Ntp642
Rp643
(lp644
I1516406524
aI983066919
abaS'world'
p645
abag1
(g16
g3
Ntp646
Rp647
(lp648
g1
(g20
g3
Ntp649
Rp650
(lp651
F0.5320525765419006
aF-1.0195554494857788
aF0.061379916965961456
abag1
(g24
g3
Ntp652
Rp653
(lp654
F-0.13724322617053986
aF-0.07743041962385178
aF-0.85466068983078
aF0.4946960210800171
abababag1
(g2
g3
Ntp655
Rp656
(lp657
g1
(g7
g3
Ntp658
Rp659
(lp660
I604428
ag1
(g11
g3
Ntp661
Rp662
(lp663
I1516406525
aI83086686
abaS'world'
p664
abag1
(g16
g3
Ntp665
Rp666
(lp667
g1
(g20
g3
Ntp668
Rp669
(lp670
F0.5032685995101929
aF-1.0530420541763306
aF0.0564086027443409
abag1
(g24
g3
Ntp671
Rp672
(lp673
F-0.0774887353181839
aF-0.04893551021814346
aF-0.8962728977203369
aF0.4339306056499481
abababag1
(g2
g3
Ntp674
Rp675
(lp676
g1
(g7
g3
Ntp677
Rp678
(lp679
I604438
ag1
(g11
g3
Ntp680
Rp681
(lp682
I1516406525
aI183181658
abaS'world'
p683
abag1
(g16
g3
Ntp684
Rp685
(lp686
g1
(g20
g3
Ntp687
Rp688
(lp689
F0.470660001039505
aF-1.0971242189407349
aF0.0618642196059227
abag1
(g24
g3
Ntp690
Rp691
(lp692
F0.016133714467287064
aF0.04113267734646797
aF-0.9188597202301025
aF0.392102986574173
abababag1
(g2
g3
Ntp693
Rp694
(lp695
g1
(g7
g3
Ntp696
Rp697
(lp698
I604448
ag1
(g11
g3
Ntp699
Rp700
(lp701
I1516406525
aI283166330
abaS'world'
p702
abag1
(g16
g3
Ntp703
Rp704
(lp705
g1
(g20
g3
Ntp706
Rp707
(lp708
F0.43334221839904785
aF-1.1433056592941284
aF0.062494270503520966
abag1
(g24
g3
Ntp709
Rp710
(lp711
F-0.019917041063308716
aF0.08653663098812103
aF-0.9396816492080688
aF0.3303227424621582
abababag1
(g2
g3
Ntp712
Rp713
(lp714
g1
(g7
g3
Ntp715
Rp716
(lp717
I604458
ag1
(g11
g3
Ntp718
Rp719
(lp720
I1516406525
aI383017488
abaS'world'
p721
abag1
(g16
g3
Ntp722
Rp723
(lp724
g1
(g20
g3
Ntp725
Rp726
(lp727
F0.3913348317146301
aF-1.184700846672058
aF0.06078234314918518
abag1
(g24
g3
Ntp728
Rp729
(lp730
F-0.06757191568613052
aF0.009847852401435375
aF-0.9160394072532654
aF0.3952327370643616
abababag1
(g2
g3
Ntp731
Rp732
(lp733
g1
(g7
g3
Ntp734
Rp735
(lp736
I604467
ag1
(g11
g3
Ntp737
Rp738
(lp739
I1516406525
aI472959116
abaS'world'
p740
abag1
(g16
g3
Ntp741
Rp742
(lp743
g1
(g20
g3
Ntp744
Rp745
(lp746
F0.3506373167037964
aF-1.2231197357177734
aF0.061514269560575485
abag1
(g24
g3
Ntp747
Rp748
(lp749
F-0.05819397419691086
aF-0.04148922488093376
aF-0.8265219926834106
aF0.5583489537239075
abababag1
(g2
g3
Ntp750
Rp751
(lp752
g1
(g7
g3
Ntp753
Rp754
(lp755
I604478
ag1
(g11
g3
Ntp756
Rp757
(lp758
I1516406525
aI583146282
abaS'world'
p759
abag1
(g16
g3
Ntp760
Rp761
(lp762
g1
(g20
g3
Ntp763
Rp764
(lp765
F0.3202439546585083
aF-1.2808570861816406
aF0.05631192773580551
abag1
(g24
g3
Ntp766
Rp767
(lp768
F0.02216053009033203
aF-0.014592073857784271
aF-0.7335200905799866
aF0.6791497468948364
abababag1
(g2
g3
Ntp769
Rp770
(lp771
g1
(g7
g3
Ntp772
Rp773
(lp774
I604488
ag1
(g11
g3
Ntp775
Rp776
(lp777
I1516406525
aI682992169
abaS'world'
p778
abag1
(g16
g3
Ntp779
Rp780
(lp781
g1
(g20
g3
Ntp782
Rp783
(lp784
F0.30464616417884827
aF-1.3243385553359985
aF0.05211246386170387
abag1
(g24
g3
Ntp785
Rp786
(lp787
F-0.02211013436317444
aF0.09745929390192032
aF-0.8110795617103577
aF0.5763357877731323
abababag1
(g2
g3
Ntp788
Rp789
(lp790
g1
(g7
g3
Ntp791
Rp792
(lp793
I604498
ag1
(g11
g3
Ntp794
Rp795
(lp796
I1516406525
aI782968526
abaS'world'
p797
abag1
(g16
g3
Ntp798
Rp799
(lp800
g1
(g20
g3
Ntp801
Rp802
(lp803
F0.28926753997802734
aF-1.354906439781189
aF0.06052805483341217
abag1
(g24
g3
Ntp804
Rp805
(lp806
F-0.050685349851846695
aF0.07624272257089615
aF-0.7961187958717346
aF0.5981747508049011
abababag1
(g2
g3
Ntp807
Rp808
(lp809
g1
(g7
g3
Ntp810
Rp811
(lp812
I604508
ag1
(g11
g3
Ntp813
Rp814
(lp815
I1516406525
aI883213566
abaS'world'
p816
abag1
(g16
g3
Ntp817
Rp818
(lp819
g1
(g20
g3
Ntp820
Rp821
(lp822
F0.2768535017967224
aF-1.3862760066986084
aF0.057215992361307144
abag1
(g24
g3
Ntp823
Rp824
(lp825
F-0.14779455959796906
aF0.16163983941078186
aF-0.7690091133117676
aF0.6005450487136841
abababag1
(g2
g3
Ntp826
Rp827
(lp828
g1
(g7
g3
Ntp829
Rp830
(lp831
I604518
ag1
(g11
g3
Ntp832
Rp833
(lp834
I1516406525
aI983041160
abaS'world'
p835
abag1
(g16
g3
Ntp836
Rp837
(lp838
g1
(g20
g3
Ntp839
Rp840
(lp841
F0.24955341219902039
aF-1.4090826511383057
aF0.05739206075668335
abag1
(g24
g3
Ntp842
Rp843
(lp844
F-0.022102942690253258
aF-0.0735517293214798
aF-0.820939302444458
aF0.5658270120620728
abababag1
(g2
g3
Ntp845
Rp846
(lp847
g1
(g7
g3
Ntp848
Rp849
(lp850
I604528
ag1
(g11
g3
Ntp851
Rp852
(lp853
I1516406526
aI82877468
abaS'world'
p854
abag1
(g16
g3
Ntp855
Rp856
(lp857
g1
(g20
g3
Ntp858
Rp859
(lp860
F0.23005326092243195
aF-1.4556411504745483
aF0.05806858092546463
abag1
(g24
g3
Ntp861
Rp862
(lp863
F-0.04530720040202141
aF0.10248341411352158
aF-0.8392866849899292
aF0.5320171117782593
abababag1
(g2
g3
Ntp864
Rp865
(lp866
g1
(g7
g3
Ntp867
Rp868
(lp869
I604538
ag1
(g11
g3
Ntp870
Rp871
(lp872
I1516406526
aI183169551
abaS'world'
p873
abag1
(g16
g3
Ntp874
Rp875
(lp876
g1
(g20
g3
Ntp877
Rp878
(lp879
F0.20613138377666473
aF-1.504734992980957
aF0.058271974325180054
abag1
(g24
g3
Ntp880
Rp881
(lp882
F-0.03435632213950157
aF0.05902464687824249
aF-0.7744411826133728
aF0.6289488077163696
abababag1
(g2
g3
Ntp883
Rp884
(lp885
g1
(g7
g3
Ntp886
Rp887
(lp888
I604548
ag1
(g11
g3
Ntp889
Rp890
(lp891
I1516406526
aI283035398
abaS'world'
p892
abag1
(g16
g3
Ntp893
Rp894
(lp895
g1
(g20
g3
Ntp896
Rp897
(lp898
F0.19123873114585876
aF-1.5325208902359009
aF0.0639495849609375
abag1
(g24
g3
Ntp899
Rp900
(lp901
F-0.04694243520498276
aF0.012737425975501537
aF-0.7510759234428406
aF0.6584218144416809
abababag1
(g2
g3
Ntp902
Rp903
(lp904
g1
(g7
g3
Ntp905
Rp906
(lp907
I604558
ag1
(g11
g3
Ntp908
Rp909
(lp910
I1516406526
aI383057009
abaS'world'
p911
abag1
(g16
g3
Ntp912
Rp913
(lp914
g1
(g20
g3
Ntp915
Rp916
(lp917
F0.19049696624279022
aF-1.5532376766204834
aF0.06205043941736221
abag1
(g24
g3
Ntp918
Rp919
(lp920
F-0.06566043198108673
aF-0.032411716878414154
aF-0.7781257033348083
aF0.6238258481025696
abababag1
(g2
g3
Ntp921
Rp922
(lp923
g1
(g7
g3
Ntp924
Rp925
(lp926
I604568
ag1
(g11
g3
Ntp927
Rp928
(lp929
I1516406526
aI483077963
abaS'world'
p930
abag1
(g16
g3
Ntp931
Rp932
(lp933
g1
(g20
g3
Ntp934
Rp935
(lp936
F0.1900111734867096
aF-1.589746117591858
aF0.06490381807088852
abag1
(g24
g3
Ntp937
Rp938
(lp939
F-0.04685840383172035
aF-0.007140676490962505
aF-0.7112309336662292
aF0.7013586163520813
abababag1
(g2
g3
Ntp940
Rp941
(lp942
g1
(g7
g3
Ntp943
Rp944
(lp945
I604578
ag1
(g11
g3
Ntp946
Rp947
(lp948
I1516406526
aI583033392
abaS'world'
p949
abag1
(g16
g3
Ntp950
Rp951
(lp952
g1
(g20
g3
Ntp953
Rp954
(lp955
F0.1775280088186264
aF-1.6418089866638184
aF0.052089590579271317
abag1
(g24
g3
Ntp956
Rp957
(lp958
F0.02787359617650509
aF-0.01006236020475626
aF-0.7034206986427307
aF0.7101557850837708
abababa.