(lp0
ccopy_reg
_reconstructor
p1
(cnn_dynamics_roach.msg._velroach_msg
velroach_msg
p2
c__builtin__
object
p3
Ntp4
Rp5
(lp6
g1
(crospy.rostime
Time
p7
g3
Ntp8
Rp9
(lp10
I1519097771
aI144231081
abaI0
aI0
aI11851496
aI13404336
aI-2338
aI284
aI-3009
aI54
aI-37
aI906
abag1
(g2
g3
Ntp11
Rp12
(lp13
g1
(g7
g3
Ntp14
Rp15
(lp16
I1519097771
aI203084945
abaF503.74466337639507
aF179.1103108235195
aI11852656
aI13413576
aI73
aI393
aI17
aI-4
aI-9
aI910
abag1
(g2
g3
Ntp17
Rp18
(lp19
g1
(g7
g3
Ntp20
Rp21
(lp22
I1519097771
aI281460046
abaF520.5223650769816
aF182.05057673491044
aI11851788
aI13413476
aI47
aI301
aI129
aI-17
aI-14
aI908
abag1
(g2
g3
Ntp23
Rp24
(lp25
g1
(g7
g3
Ntp26
Rp27
(lp28
I1519097771
aI378233909
abaF534.641894384739
aF159.09746143042216
aI11868600
aI13424456
aI-261
aI-646
aI-1169
aI229
aI18
aI856
abag1
(g2
g3
Ntp29
Rp30
(lp31
g1
(g7
g3
Ntp32
Rp33
(lp34
I1519097771
aI474725008
abaF563.7877141209703
aF211.70409285969833
aI11919208
aI13440328
aI-1638
aI-2133
aI-257
aI26
aI-29
aI894
abag1
(g2
g3
Ntp35
Rp36
(lp37
g1
(g7
g3
Ntp38
Rp39
(lp40
I1519097771
aI578085899
abaF583.067002367289
aF175.71074046416223
aI11971568
aI13459148
aI1244
aI625
aI-2710
aI121
aI-37
aI903
abag1
(g2
g3
Ntp41
Rp42
(lp43
g1
(g7
g3
Ntp44
Rp45
(lp46
I1519097771
aI680850028
abaF580.3727657859741
aF215.2072490412724
aI12006656
aI13474316
aI1799
aI-877
aI-4179
aI272
aI-40
aI881
abag1
(g2
g3
Ntp47
Rp48
(lp49
g1
(g7
g3
Ntp50
Rp51
(lp52
I1519097771
aI778516054
abaF312.7038413656867
aF512.3879789618533
aI12053248
aI13485620
aI1166
aI-974
aI2067
aI236
aI-320
aI847
abag1
(g2
g3
Ntp53
Rp54
(lp55
g1
(g7
g3
Ntp56
Rp57
(lp58
I1519097771
aI881146907
abaF137.22941919173041
aF538.683433670845
aI12081592
aI13519788
aI-1048
aI3365
aI-531
aI65
aI-371
aI890
abag1
(g2
g3
Ntp59
Rp60
(lp61
g1
(g7
g3
Ntp62
Rp63
(lp64
I1519097771
aI974296092
abaF469.71691265337256
aF584.2944553566517
aI12096472
aI13553056
aI5994
aI-4722
aI-489
aI-22
aI-342
aI881
abag1
(g2
g3
Ntp65
Rp66
(lp67
g1
(g7
g3
Ntp68
Rp69
(lp70
I1519097772
aI80487012
abaF334.7521664704176
aF323.49206114488766
aI12125948
aI13610784
aI-2414
aI5799
aI3516
aI256
aI-113
aI870
abag1
(g2
g3
Ntp71
Rp72
(lp73
g1
(g7
g3
Ntp74
Rp75
(lp76
I1519097772
aI178337097
abaF468.898233770922
aF365.37747148903827
aI12160344
aI13642020
aI866
aI1121
aI-1321
aI51
aI-77
aI905
abag1
(g2
g3
Ntp77
Rp78
(lp79
g1
(g7
g3
Ntp80
Rp81
(lp82
I1519097772
aI282866001
abaF263.6993158300988
aF557.0127430893286
aI12194392
aI13677124
aI6077
aI3164
aI-3052
aI249
aI-37
aI870
abag1
(g2
g3
Ntp83
Rp84
(lp85
g1
(g7
g3
Ntp86
Rp87
(lp88
I1519097772
aI375622034
abaF215.90289310075704
aF582.8486261426197
aI12219952
aI13730272
aI-674
aI1557
aI3608
aI-2
aI-139
aI899
abag1
(g2
g3
Ntp89
Rp90
(lp91
g1
(g7
g3
Ntp92
Rp93
(lp94
I1519097772
aI479943037
abaF131.26215211380784
aF487.4232390204452
aI12242960
aI13768352
aI3783
aI-1019
aI2414
aI-21
aI-361
aI887
abag1
(g2
g3
Ntp95
Rp96
(lp97
g1
(g7
g3
Ntp98
Rp99
(lp100
I1519097772
aI577606916
abaF160.2242420147395
aF513.0325602297052
aI12251820
aI13810308
aI1290
aI-526
aI-2474
aI-60
aI-382
aI860
abag1
(g2
g3
Ntp101
Rp102
(lp103
g1
(g7
g3
Ntp104
Rp105
(lp106
I1519097772
aI680258989
abaF171.7856561521694
aF197.0070138523218
aI12269240
aI13854676
aI-655
aI721
aI1962
aI0
aI-159
aI902
abag1
(g2
g3
Ntp107
Rp108
(lp109
g1
(g7
g3
Ntp110
Rp111
(lp112
I1519097772
aI783267974
abaF218.8320589146557
aF338.26376978328085
aI12287480
aI13873552
aI3424
aI-177
aI-429
aI-3
aI-39
aI898
abag1
(g2
g3
Ntp113
Rp114
(lp115
g1
(g7
g3
Ntp116
Rp117
(lp118
I1519097772
aI880259037
abaF159.7680479627817
aF498.8367770329093
aI12308680
aI13904948
aI-1908
aI6958
aI5949
aI26
aI-102
aI893
abag1
(g2
g3
Ntp119
Rp120
(lp121
g1
(g7
g3
Ntp122
Rp123
(lp124
I1519097772
aI977639913
abaF355.1808694426522
aF204.23023979193505
aI12321476
aI13945684
aI4
aI-1058
aI-3401
aI-3
aI-331
aI865
abag1
(g2
g3
Ntp125
Rp126
(lp127
g1
(g7
g3
Ntp128
Rp129
(lp130
I1519097773
aI81650018
abaF330.661583650445
aF302.89772886162626
aI12356044
aI13967244
aI-1128
aI2142
aI1763
aI39
aI-47
aI901
abag1
(g2
g3
Ntp131
Rp132
(lp133
g1
(g7
g3
Ntp134
Rp135
(lp136
I1519097773
aI176117897
abaF268.2338045536318
aF565.9224307466654
aI12385176
aI13999020
aI2086
aI6286
aI2259
aI-134
aI-50
aI884
abag1
(g2
g3
Ntp137
Rp138
(lp139
g1
(g7
g3
Ntp140
Rp141
(lp142
I1519097773
aI280073881
abaF194.95453853228184
aF155.3805820161571
aI12413016
aI14039276
aI1595
aI-1072
aI-406
aI29
aI-405
aI896
abag1
(g2
g3
Ntp143
Rp144
(lp145
g1
(g7
g3
Ntp146
Rp147
(lp148
I1519097773
aI377361059
abaF589.6746321417804
aF224.42552514236448
aI12433012
aI14057664
aI1316
aI1452
aI113
aI4
aI-24
aI904
abag1
(g2
g3
Ntp149
Rp150
(lp151
g1
(g7
g3
Ntp152
Rp153
(lp154
I1519097773
aI480001926
abaF444.20589112996896
aF343.12196189085125
aI12480012
aI14078576
aI1917
aI-5291
aI-4271
aI186
aI-38
aI882
abag1
(g2
g3
Ntp155
Rp156
(lp157
g1
(g7
g3
Ntp158
Rp159
(lp160
I1519097773
aI573921918
abaF334.6767017276478
aF199.94671612917313
aI12513000
aI14111372
aI2758
aI-1606
aI1528
aI245
aI-75
aI868
abag1
(g2
g3
Ntp161
Rp162
(lp163
g1
(g7
g3
Ntp164
Rp165
(lp166
I1519097773
aI679198980
abaF465.0322740172973
aF131.67167882609417
aI12548208
aI14130892
aI-5219
aI-6025
aI-3828
aI19
aI-30
aI895
abag1
(g2
g3
Ntp167
Rp168
(lp169
g1
(g7
g3
Ntp170
Rp171
(lp172
I1519097773
aI777188062
abaF546.4764372588079
aF310.9468150286839
aI12589500
aI14142228
aI864
aI-2273
aI-268
aI254
aI-22
aI868
abag1
(g2
g3
Ntp173
Rp174
(lp175
g1
(g7
g3
Ntp176
Rp177
(lp178
I1519097773
aI880768060
abaF319.26245673211207
aF588.7622970254006
aI12642876
aI14174156
aI-6896
aI1045
aI438
aI-7
aI-64
aI886
abag1
(g2
g3
Ntp179
Rp180
(lp181
g1
(g7
g3
Ntp182
Rp183
(lp184
I1519097773
aI973440885
abaF256.92423838995364
aF295.3607573564582
aI12675428
aI14224136
aI1634
aI-3055
aI-1533
aI41
aI-191
aI888
abag1
(g2
g3
Ntp185
Rp186
(lp187
g1
(g7
g3
Ntp188
Rp189
(lp190
I1519097774
aI78759908
abaF520.590023894993
aF335.04063531366955
aI12701768
aI14253756
aI-6031
aI1949
aI2540
aI13
aI-82
aI900
abag1
(g2
g3
Ntp191
Rp192
(lp193
g1
(g7
g3
Ntp194
Rp195
(lp196
I1519097774
aI177769899
abaF479.3088492681133
aF136.72390722884842
aI12754912
aI14284088
aI752
aI-4630
aI-2419
aI77
aI-45
aI891
abag1
(g2
g3
Ntp197
Rp198
(lp199
g1
(g7
g3
Ntp200
Rp201
(lp202
I1519097774
aI282876968
abaF171.27440613046576
aF541.0971821556723
aI12781124
aI14298580
aI4947
aI-112
aI-1187
aI251
aI-41
aI874
abag1
(g2
g3
Ntp203
Rp204
(lp205
g1
(g7
g3
Ntp206
Rp207
(lp208
I1519097774
aI382172107
abaF461.80555160062664
aF485.2796619672425
aI12801020
aI14337388
aI-4354
aI-5664
aI-2640
aI-24
aI-329
aI876
abag1
(g2
g3
Ntp209
Rp210
(lp211
g1
(g7
g3
Ntp212
Rp213
(lp214
I1519097774
aI479397058
abaF159.4248888891917
aF380.56856513663445
aI12841692
aI14383380
aI-3174
aI4951
aI4519
aI223
aI-160
aI878
abag1
(g2
g3
Ntp215
Rp216
(lp217
g1
(g7
g3
Ntp218
Rp219
(lp220
I1519097774
aI582479953
abaF264.97348780996015
aF555.7720882127476
aI12860252
aI14417452
aI2259
aI2044
aI581
aI-3
aI-57
aI890
abag1
(g2
g3
Ntp221
Rp222
(lp223
g1
(g7
g3
Ntp224
Rp225
(lp226
I1519097774
aI675911903
abaF464.5101411446481
aF147.23782213092466
aI12888916
aI14467112
aI-2468
aI-3003
aI-1534
aI21
aI-364
aI878
abag1
(g2
g3
Ntp227
Rp228
(lp229
g1
(g7
g3
Ntp230
Rp231
(lp232
I1519097774
aI782035112
abaF441.4544038998424
aF185.74558033624058
aI12935352
aI14485660
aI2177
aI224
aI591
aI98
aI-33
aI908
abag1
(g2
g3
Ntp233
Rp234
(lp235
g1
(g7
g3
Ntp236
Rp237
(lp238
I1519097774
aI879894971
abaF498.7071027951485
aF170.59734367708612
aI12973968
aI14504448
aI3743
aI3062
aI1473
aI281
aI-44
aI877
abag1
(g2
g3
Ntp239
Rp240
(lp241
g1
(g7
g3
Ntp242
Rp243
(lp244
I1519097774
aI975878000
abaF257.180685153287
aF478.09259688402017
aI13026728
aI14522360
aI-4239
aI-2373
aI-3496
aI66
aI-27
aI901
abag1
(g2
g3
Ntp245
Rp246
(lp247
g1
(g7
g3
Ntp248
Rp249
(lp250
I1519097775
aI78490018
abaF208.32437280685463
aF424.11159674253827
aI13050800
aI14546164
aI1082
aI-2391
aI2280
aI25
aI-343
aI875
abag1
(g2
g3
Ntp251
Rp252
(lp253
g1
(g7
g3
Ntp254
Rp255
(lp256
I1519097775
aI181020021
abaF255.39438748034425
aF198.33548506893072
aI13070684
aI14589824
aI-3810
aI4775
aI1513
aI-5
aI-101
aI893
abag1
(g2
g3
Ntp257
Rp258
(lp259
g1
(g7
g3
Ntp260
Rp261
(lp262
I1519097775
aI277633905
abaF429.18061954719525
aF153.56488131729873
aI13098216
aI14607044
aI-262
aI-3860
aI1812
aI-8
aI7
aI883
abag1
(g2
g3
Ntp263
Rp264
(lp265
g1
(g7
g3
Ntp266
Rp267
(lp268
I1519097775
aI374365091
abaF346.6753819439063
aF326.5720400487392
aI13118620
aI14625168
aI-349
aI1682
aI-4299
aI311
aI-38
aI883
abag1
(g2
g3
Ntp269
Rp270
(lp271
g1
(g7
g3
Ntp272
Rp273
(lp274
I1519097775
aI477438926
abaF303.48171557293597
aF521.360052553194
aI13156040
aI14658072
aI-5257
aI-3474
aI-2422
aI14
aI-49
aI896
abag1
(g2
g3
Ntp275
Rp276
(lp277
g1
(g7
g3
Ntp278
Rp279
(lp280
I1519097775
aI581897974
abaF357.362075260079
aF176.7905979750774
aI13182124
aI14708136
aI1263
aI2463
aI1066
aI-157
aI-180
aI881
abag1
(g2
g3
Ntp281
Rp282
(lp283
g1
(g7
g3
Ntp284
Rp285
(lp286
I1519097775
aI677289962
abaF583.3904404049897
aF525.1204653201479
aI13221200
aI14725984
aI-10539
aI-6209
aI-2837
aI28
aI-46
aI897
abag1
(g2
g3
Ntp287
Rp288
(lp289
g1
(g7
g3
Ntp290
Rp291
(lp292
I1519097775
aI779967069
abaF202.07241094104202
aF302.2505827892993
aI13268444
aI14775780
aI6260
aI-1199
aI1562
aI311
aI-195
aI898
abag1
(g2
g3
Ntp293
Rp294
(lp295
g1
(g7
g3
Ntp296
Rp297
(lp298
I1519097775
aI872786998
abaF567.8676064065648
aF242.47187301242522
aI13292088
aI14800440
aI-7431
aI-5337
aI1372
aI-3
aI-320
aI871
abag1
(g2
g3
Ntp299
Rp300
(lp301
g1
(g7
g3
Ntp302
Rp303
(lp304
I1519097775
aI980230093
abaF474.45269317114196
aF338.8791583478327
aI13343684
aI14827724
aI5257
aI4200
aI1825
aI192
aI-53
aI906
aba.