(lp0
ccopy_reg
_reconstructor
p1
(cgeometry_msgs.msg._PoseStamped
PoseStamped
p2
c__builtin__
object
p3
Ntp4
Rp5
(lp6
g1
(cstd_msgs.msg._Header
Header
p7
g3
Ntp8
Rp9
(lp10
I853825
ag1
(cgenpy.rostime
Time
p11
g3
Ntp12
Rp13
(lp14
I1517532304
aI656197945
abaS'world'
p15
abag1
(cgeometry_msgs.msg._Pose
Pose
p16
g3
Ntp17
Rp18
(lp19
g1
(cgeometry_msgs.msg._Point
Point
p20
g3
Ntp21
Rp22
(lp23
F0.9066669344902039
aF0.1392141431570053
aF0.08538367599248886
abag1
(cgeometry_msgs.msg._Quaternion
Quaternion
p24
g3
Ntp25
Rp26
(lp27
F0.006202431861311197
aF0.015950337052345276
aF-0.06502262502908707
aF-0.9977370500564575
abababag1
(g2
g3
Ntp28
Rp29
(lp30
g1
(g7
g3
Ntp31
Rp32
(lp33
I853828
ag1
(g11
g3
Ntp34
Rp35
(lp36
I1517532304
aI686039224
abaS'world'
p37
abag1
(g16
g3
Ntp38
Rp39
(lp40
g1
(g20
g3
Ntp41
Rp42
(lp43
F0.9068511724472046
aF0.13866566121578217
aF0.08530977368354797
abag1
(g24
g3
Ntp44
Rp45
(lp46
F-0.00036707823164761066
aF0.02210329659283161
aF-0.06726566702127457
aF-0.9974901676177979
abababag1
(g2
g3
Ntp47
Rp48
(lp49
g1
(g7
g3
Ntp50
Rp51
(lp52
I853838
ag1
(g11
g3
Ntp53
Rp54
(lp55
I1517532304
aI786056856
abaS'world'
p56
abag1
(g16
g3
Ntp57
Rp58
(lp59
g1
(g20
g3
Ntp60
Rp61
(lp62
F0.9179019927978516
aF0.12997423112392426
aF0.0888361930847168
abag1
(g24
g3
Ntp63
Rp64
(lp65
F0.03468795865774155
aF0.04181067273020744
aF0.0285703856498003
aF-0.9981144666671753
abababag1
(g2
g3
Ntp66
Rp67
(lp68
g1
(g7
g3
Ntp69
Rp70
(lp71
I853848
ag1
(g11
g3
Ntp72
Rp73
(lp74
I1517532304
aI886092382
abaS'world'
p75
abag1
(g16
g3
Ntp76
Rp77
(lp78
g1
(g20
g3
Ntp79
Rp80
(lp81
F0.9464877843856812
aF0.11487215012311935
aF0.0861041322350502
abag1
(g24
g3
Ntp82
Rp83
(lp84
F0.027728242799639702
aF0.009747214615345001
aF0.0400996133685112
aF-0.998763382434845
abababag1
(g2
g3
Ntp85
Rp86
(lp87
g1
(g7
g3
Ntp88
Rp89
(lp90
I853858
ag1
(g11
g3
Ntp91
Rp92
(lp93
I1517532304
aI986109869
abaS'world'
p94
abag1
(g16
g3
Ntp95
Rp96
(lp97
g1
(g20
g3
Ntp98
Rp99
(lp100
F0.9701160192489624
aF0.10594765841960907
aF0.08495662361383438
abag1
(g24
g3
Ntp101
Rp102
(lp103
F0.014419390819966793
aF0.021199170500040054
aF0.039515383541584015
aF-0.9988899827003479
abababag1
(g2
g3
Ntp104
Rp105
(lp106
g1
(g7
g3
Ntp107
Rp108
(lp109
I853868
ag1
(g11
g3
Ntp110
Rp111
(lp112
I1517532305
aI86168607
abaS'world'
p113
abag1
(g16
g3
Ntp114
Rp115
(lp116
g1
(g20
g3
Ntp117
Rp118
(lp119
F0.9920656681060791
aF0.0911363884806633
aF0.09015870094299316
abag1
(g24
g3
Ntp120
Rp121
(lp122
F-0.10978581756353378
aF0.07650668174028397
aF-0.026666834950447083
aF-0.9906476736068726
abababag1
(g2
g3
Ntp123
Rp124
(lp125
g1
(g7
g3
Ntp126
Rp127
(lp128
I853878
ag1
(g11
g3
Ntp129
Rp130
(lp131
I1517532305
aI186021653
abaS'world'
p132
abag1
(g16
g3
Ntp133
Rp134
(lp135
g1
(g20
g3
Ntp136
Rp137
(lp138
F1.0172865390777588
aF0.09547627717256546
aF0.0940006747841835
abag1
(g24
g3
Ntp139
Rp140
(lp141
F-0.047941725701093674
aF-0.009731406345963478
aF-0.01730663888156414
aF-0.9986528158187866
abababag1
(g2
g3
Ntp142
Rp143
(lp144
g1
(g7
g3
Ntp145
Rp146
(lp147
I853889
ag1
(g11
g3
Ntp148
Rp149
(lp150
I1517532305
aI296042165
abaS'world'
p151
abag1
(g16
g3
Ntp152
Rp153
(lp154
g1
(g20
g3
Ntp155
Rp156
(lp157
F1.0564111471176147
aF0.08866263926029205
aF0.0825759768486023
abag1
(g24
g3
Ntp158
Rp159
(lp160
F0.028272993862628937
aF-0.11718893051147461
aF0.2705818712711334
aF-0.9551193118095398
abababag1
(g2
g3
Ntp161
Rp162
(lp163
g1
(g7
g3
Ntp164
Rp165
(lp166
I853898
ag1
(g11
g3
Ntp167
Rp168
(lp169
I1517532305
aI385932868
abaS'world'
p170
abag1
(g16
g3
Ntp171
Rp172
(lp173
g1
(g20
g3
Ntp174
Rp175
(lp176
F1.0544445514678955
aF0.09758903831243515
aF0.0982174277305603
abag1
(g24
g3
Ntp177
Rp178
(lp179
F0.1982519030570984
aF0.09325067698955536
aF0.27339908480644226
aF-0.9366180896759033
abababag1
(g2
g3
Ntp180
Rp181
(lp182
g1
(g7
g3
Ntp183
Rp184
(lp185
I853908
ag1
(g11
g3
Ntp186
Rp187
(lp188
I1517532305
aI486065584
abaS'world'
p189
abag1
(g16
g3
Ntp190
Rp191
(lp192
g1
(g20
g3
Ntp193
Rp194
(lp195
F1.0737837553024292
aF0.08458056300878525
aF0.09262242913246155
abag1
(g24
g3
Ntp196
Rp197
(lp198
F0.21962817013263702
aF0.02025062032043934
aF0.31976550817489624
aF-0.9214681386947632
abababag1
(g2
g3
Ntp199
Rp200
(lp201
g1
(g7
g3
Ntp202
Rp203
(lp204
I853919
ag1
(g11
g3
Ntp205
Rp206
(lp207
I1517532305
aI596326071
abaS'world'
p208
abag1
(g16
g3
Ntp209
Rp210
(lp211
g1
(g20
g3
Ntp212
Rp213
(lp214
F1.0839461088180542
aF0.0703485980629921
aF0.09294585138559341
abag1
(g24
g3
Ntp215
Rp216
(lp217
F0.09167987108230591
aF0.09291666746139526
aF0.19956563413143158
aF-0.9711513519287109
abababag1
(g2
g3
Ntp218
Rp219
(lp220
g1
(g7
g3
Ntp221
Rp222
(lp223
I853929
ag1
(g11
g3
Ntp224
Rp225
(lp226
I1517532305
aI696013823
abaS'world'
p227
abag1
(g16
g3
Ntp228
Rp229
(lp230
g1
(g20
g3
Ntp231
Rp232
(lp233
F1.0997000932693481
aF0.06182384118437767
aF0.08722476661205292
abag1
(g24
g3
Ntp234
Rp235
(lp236
F0.1084127128124237
aF-0.0442463643848896
aF0.25626927614212036
aF-0.9594868421554565
abababag1
(g2
g3
Ntp237
Rp238
(lp239
g1
(g7
g3
Ntp240
Rp241
(lp242
I853938
ag1
(g11
g3
Ntp243
Rp244
(lp245
I1517532305
aI786008025
abaS'world'
p246
abag1
(g16
g3
Ntp247
Rp248
(lp249
g1
(g20
g3
Ntp250
Rp251
(lp252
F1.1032626628875732
aF0.059980787336826324
aF0.09519015997648239
abag1
(g24
g3
Ntp253
Rp254
(lp255
F0.17710837721824646
aF-0.06822212785482407
aF0.29990440607070923
aF-0.9348987340927124
abababag1
(g2
g3
Ntp256
Rp257
(lp258
g1
(g7
g3
Ntp259
Rp260
(lp261
I853948
ag1
(g11
g3
Ntp262
Rp263
(lp264
I1517532305
aI886129689
abaS'world'
p265
abag1
(g16
g3
Ntp266
Rp267
(lp268
g1
(g20
g3
Ntp269
Rp270
(lp271
F1.0987809896469116
aF0.05069584399461746
aF0.08681410551071167
abag1
(g24
g3
Ntp272
Rp273
(lp274
F0.07576700299978256
aF0.02726355940103531
aF0.4079837501049042
aF-0.9094312787055969
abababag1
(g2
g3
Ntp275
Rp276
(lp277
g1
(g7
g3
Ntp278
Rp279
(lp280
I853960
ag1
(g11
g3
Ntp281
Rp282
(lp283
I1517532306
aI6145988
abaS'world'
p284
abag1
(g16
g3
Ntp285
Rp286
(lp287
g1
(g20
g3
Ntp288
Rp289
(lp290
F1.1201547384262085
aF0.057362016290426254
aF0.09490053355693817
abag1
(g24
g3
Ntp291
Rp292
(lp293
F0.1732395440340042
aF-0.023931797593832016
aF0.31875380873680115
aF-0.9315639734268188
abababag1
(g2
g3
Ntp294
Rp295
(lp296
g1
(g7
g3
Ntp297
Rp298
(lp299
I853969
ag1
(g11
g3
Ntp300
Rp301
(lp302
I1517532306
aI96038713
abaS'world'
p303
abag1
(g16
g3
Ntp304
Rp305
(lp306
g1
(g20
g3
Ntp307
Rp308
(lp309
F1.1357938051223755
aF0.039221666753292084
aF0.09410261362791061
abag1
(g24
g3
Ntp310
Rp311
(lp312
F0.03818231076002121
aF0.03730880469083786
aF0.26127442717552185
aF-0.9637871980667114
abababag1
(g2
g3
Ntp313
Rp314
(lp315
g1
(g7
g3
Ntp316
Rp317
(lp318
I853978
ag1
(g11
g3
Ntp319
Rp320
(lp321
I1517532306
aI186017217
abaS'world'
p322
abag1
(g16
g3
Ntp323
Rp324
(lp325
g1
(g20
g3
Ntp326
Rp327
(lp328
F1.1569775342941284
aF0.03825893625617027
aF0.09138484299182892
abag1
(g24
g3
Ntp329
Rp330
(lp331
F0.08060003072023392
aF-0.052695173770189285
aF0.02561292052268982
aF-0.9950230717658997
abababag1
(g2
g3
Ntp332
Rp333
(lp334
g1
(g7
g3
Ntp335
Rp336
(lp337
I853988
ag1
(g11
g3
Ntp338
Rp339
(lp340
I1517532306
aI286080510
abaS'world'
p341
abag1
(g16
g3
Ntp342
Rp343
(lp344
g1
(g20
g3
Ntp345
Rp346
(lp347
F1.1823395490646362
aF0.04181661084294319
aF0.09074161946773529
abag1
(g24
g3
Ntp348
Rp349
(lp350
F0.0280469860881567
aF-0.0033334787003695965
aF-0.05745811015367508
aF-0.9979483485221863
abababag1
(g2
g3
Ntp351
Rp352
(lp353
g1
(g7
g3
Ntp354
Rp355
(lp356
I853999
ag1
(g11
g3
Ntp357
Rp358
(lp359
I1517532306
aI396143454
abaS'world'
p360
abag1
(g16
g3
Ntp361
Rp362
(lp363
g1
(g20
g3
Ntp364
Rp365
(lp366
F1.2216453552246094
aF0.04300782456994057
aF0.08509471267461777
abag1
(g24
g3
Ntp367
Rp368
(lp369
F-0.01857544109225273
aF-0.03426764905452728
aF-0.13580524921417236
aF-0.9899685382843018
abababag1
(g2
g3
Ntp370
Rp371
(lp372
g1
(g7
g3
Ntp373
Rp374
(lp375
I854009
ag1
(g11
g3
Ntp376
Rp377
(lp378
I1517532306
aI496098310
abaS'world'
p379
abag1
(g16
g3
Ntp380
Rp381
(lp382
g1
(g20
g3
Ntp383
Rp384
(lp385
F1.2492434978485107
aF0.038809217512607574
aF0.08413053303956985
abag1
(g24
g3
Ntp386
Rp387
(lp388
F0.07041134685277939
aF-0.004866041708737612
aF0.06233905628323555
aF-0.9955563545227051
abababag1
(g2
g3
Ntp389
Rp390
(lp391
g1
(g7
g3
Ntp392
Rp393
(lp394
I854018
ag1
(g11
g3
Ntp395
Rp396
(lp397
I1517532306
aI586000979
abaS'world'
p398
abag1
(g16
g3
Ntp399
Rp400
(lp401
g1
(g20
g3
Ntp402
Rp403
(lp404
F1.2685314416885376
aF0.03183841332793236
aF0.08673548698425293
abag1
(g24
g3
Ntp405
Rp406
(lp407
F0.05211750045418739
aF0.013037307187914848
aF0.027975643053650856
aF-0.9981638789176941
abababag1
(g2
g3
Ntp408
Rp409
(lp410
g1
(g7
g3
Ntp411
Rp412
(lp413
I854028
ag1
(g11
g3
Ntp414
Rp415
(lp416
I1517532306
aI686043332
abaS'world'
p417
abag1
(g16
g3
Ntp418
Rp419
(lp420
g1
(g20
g3
Ntp421
Rp422
(lp423
F1.2942122220993042
aF0.02128106728196144
aF0.0876816138625145
abag1
(g24
g3
Ntp424
Rp425
(lp426
F-0.017558293417096138
aF-0.012983632273972034
aF-0.07471207529306412
aF-0.9969660639762878
abababag1
(g2
g3
Ntp427
Rp428
(lp429
g1
(g7
g3
Ntp430
Rp431
(lp432
I854038
ag1
(g11
g3
Ntp433
Rp434
(lp435
I1517532306
aI786103440
abaS'world'
p436
abag1
(g16
g3
Ntp437
Rp438
(lp439
g1
(g20
g3
Ntp440
Rp441
(lp442
F1.3351125717163086
aF0.01908756233751774
aF0.0871424674987793
abag1
(g24
g3
Ntp443
Rp444
(lp445
F0.021754920482635498
aF-0.0706937238574028
aF-0.10583086311817169
aF-0.9916294813156128
abababag1
(g2
g3
Ntp446
Rp447
(lp448
g1
(g7
g3
Ntp449
Rp450
(lp451
I854049
ag1
(g11
g3
Ntp452
Rp453
(lp454
I1517532306
aI895975841
abaS'world'
p455
abag1
(g16
g3
Ntp456
Rp457
(lp458
g1
(g20
g3
Ntp459
Rp460
(lp461
F1.3623454570770264
aF0.011582823470234871
aF0.08689042925834656
abag1
(g24
g3
Ntp462
Rp463
(lp464
F0.04455704614520073
aF-0.04191084951162338
aF-0.0914880633354187
aF-0.9939256906509399
abababag1
(g2
g3
Ntp465
Rp466
(lp467
g1
(g7
g3
Ntp468
Rp469
(lp470
I854058
ag1
(g11
g3
Ntp471
Rp472
(lp473
I1517532306
aI986092286
abaS'world'
p474
abag1
(g16
g3
Ntp475
Rp476
(lp477
g1
(g20
g3
Ntp478
Rp479
(lp480
F1.3960574865341187
aF0.007637418806552887
aF0.08693591505289078
abag1
(g24
g3
Ntp481
Rp482
(lp483
F0.06414218246936798
aF-0.029527416452765465
aF-0.11894068866968155
aF-0.9903873801231384
abababag1
(g2
g3
Ntp484
Rp485
(lp486
g1
(g7
g3
Ntp487
Rp488
(lp489
I854068
ag1
(g11
g3
Ntp490
Rp491
(lp492
I1517532307
aI85908165
abaS'world'
p493
abag1
(g16
g3
Ntp494
Rp495
(lp496
g1
(g20
g3
Ntp497
Rp498
(lp499
F1.4318257570266724
aF-0.001487951842136681
aF0.08201725780963898
abag1
(g24
g3
Ntp500
Rp501
(lp502
F0.006400220561772585
aF-0.006587956566363573
aF-0.14680816233158112
aF-0.9891223311424255
abababag1
(g2
g3
Ntp503
Rp504
(lp505
g1
(g7
g3
Ntp506
Rp507
(lp508
I854080
ag1
(g11
g3
Ntp509
Rp510
(lp511
I1517532307
aI206267189
abaS'world'
p512
abag1
(g16
g3
Ntp513
Rp514
(lp515
g1
(g20
g3
Ntp516
Rp517
(lp518
F1.4649280309677124
aF-0.006022444926202297
aF0.0862596407532692
abag1
(g24
g3
Ntp519
Rp520
(lp521
F-0.0518040657043457
aF0.02869810163974762
aF-0.1249949187040329
aF-0.9903883337974548
abababag1
(g2
g3
Ntp522
Rp523
(lp524
g1
(g7
g3
Ntp525
Rp526
(lp527
I854085
ag1
(g11
g3
Ntp528
Rp529
(lp530
I1517532307
aI256237694
abaS'world'
p531
abag1
(g16
g3
Ntp532
Rp533
(lp534
g1
(g20
g3
Ntp535
Rp536
(lp537
F1.4730864763259888
aF-0.004354316741228104
aF0.0857701376080513
abag1
(g24
g3
Ntp538
Rp539
(lp540
F0.05109782889485359
aF0.07683876156806946
aF-0.08443310856819153
aF-0.9921471476554871
abababag1
(g2
g3
Ntp541
Rp542
(lp543
g1
(g7
g3
Ntp544
Rp545
(lp546
I854095
ag1
(g11
g3
Ntp547
Rp548
(lp549
I1517532307
aI356164478
abaS'world'
p550
abag1
(g16
g3
Ntp551
Rp552
(lp553
g1
(g20
g3
Ntp554
Rp555
(lp556
F1.5032529830932617
aF-0.009426983073353767
aF0.08521575480699539
abag1
(g24
g3
Ntp557
Rp558
(lp559
F0.018149707466363907
aF0.012309396639466286
aF-0.08966311812400818
aF-0.9957306981086731
abababag1
(g2
g3
Ntp560
Rp561
(lp562
g1
(g7
g3
Ntp563
Rp564
(lp565
I854105
ag1
(g11
g3
Ntp566
Rp567
(lp568
I1517532307
aI456082853
abaS'world'
p569
abag1
(g16
g3
Ntp570
Rp571
(lp572
g1
(g20
g3
Ntp573
Rp574
(lp575
F1.5134392976760864
aF-0.015547731891274452
aF0.10119233280420303
abag1
(g24
g3
Ntp576
Rp577
(lp578
F-0.04025336727499962
aF0.02136162854731083
aF-0.05093425512313843
aF-0.997661828994751
abababag1
(g2
g3
Ntp579
Rp580
(lp581
g1
(g7
g3
Ntp582
Rp583
(lp584
I854115
ag1
(g11
g3
Ntp585
Rp586
(lp587
I1517532307
aI556142615
abaS'world'
p588
abag1
(g16
g3
Ntp589
Rp590
(lp591
g1
(g20
g3
Ntp592
Rp593
(lp594
F1.5292725563049316
aF-0.021610155701637268
aF0.0860239714384079
abag1
(g24
g3
Ntp595
Rp596
(lp597
F0.05076393857598305
aF0.005894363857805729
aF-0.0004068999842274934
aF-0.9986931681632996
abababag1
(g2
g3
Ntp598
Rp599
(lp600
g1
(g7
g3
Ntp601
Rp602
(lp603
I854125
ag1
(g11
g3
Ntp604
Rp605
(lp606
I1517532307
aI656163129
abaS'world'
p607
abag1
(g16
g3
Ntp608
Rp609
(lp610
g1
(g20
g3
Ntp611
Rp612
(lp613
F1.5633246898651123
aF-0.019671199843287468
aF0.09606143832206726
abag1
(g24
g3
Ntp614
Rp615
(lp616
F0.10145163536071777
aF0.05945785343647003
aF-0.1102859228849411
aF-0.986919105052948
abababag1
(g2
g3
Ntp617
Rp618
(lp619
g1
(g7
g3
Ntp620
Rp621
(lp622
I854135
ag1
(g11
g3
Ntp623
Rp624
(lp625
I1517532307
aI756020797
abaS'world'
p626
abag1
(g16
g3
Ntp627
Rp628
(lp629
g1
(g20
g3
Ntp630
Rp631
(lp632
F1.5867549180984497
aF-0.013564771972596645
aF0.09040535986423492
abag1
(g24
g3
Ntp633
Rp634
(lp635
F0.1103900596499443
aF-0.01575642079114914
aF-0.15557146072387695
aF-0.9815107583999634
abababag1
(g2
g3
Ntp636
Rp637
(lp638
g1
(g7
g3
Ntp639
Rp640
(lp641
I854145
ag1
(g11
g3
Ntp642
Rp643
(lp644
I1517532307
aI856118939
abaS'world'
p645
abag1
(g16
g3
Ntp646
Rp647
(lp648
g1
(g20
g3
Ntp649
Rp650
(lp651
F1.6035209894180298
aF-0.00852737482637167
aF0.09394611418247223
abag1
(g24
g3
Ntp652
Rp653
(lp654
F0.08349687606096268
aF0.0415462888777256
aF-0.30089887976646423
aF-0.9490848183631897
abababag1
(g2
g3
Ntp655
Rp656
(lp657
g1
(g7
g3
Ntp658
Rp659
(lp660
I854155
ag1
(g11
g3
Ntp661
Rp662
(lp663
I1517532307
aI955995104
abaS'world'
p664
abag1
(g16
g3
Ntp665
Rp666
(lp667
g1
(g20
g3
Ntp668
Rp669
(lp670
F1.6270002126693726
aF0.01889747940003872
aF0.09131768345832825
abag1
(g24
g3
Ntp671
Rp672
(lp673
F0.1866069883108139
aF-0.03374544531106949
aF-0.390907883644104
aF-0.9006831049919128
abababag1
(g2
g3
Ntp674
Rp675
(lp676
g1
(g7
g3
Ntp677
Rp678
(lp679
I854165
ag1
(g11
g3
Ntp680
Rp681
(lp682
I1517532308
aI56107468
abaS'world'
p683
abag1
(g16
g3
Ntp684
Rp685
(lp686
g1
(g20
g3
Ntp687
Rp688
(lp689
F1.6534439325332642
aF0.026737941429018974
aF0.09490007162094116
abag1
(g24
g3
Ntp690
Rp691
(lp692
F0.11085691303014755
aF0.01898111216723919
aF-0.3509587049484253
aF-0.9296120405197144
abababag1
(g2
g3
Ntp693
Rp694
(lp695
g1
(g7
g3
Ntp696
Rp697
(lp698
I854175
ag1
(g11
g3
Ntp699
Rp700
(lp701
I1517532308
aI155945245
abaS'world'
p702
abag1
(g16
g3
Ntp703
Rp704
(lp705
g1
(g20
g3
Ntp706
Rp707
(lp708
F1.663664698600769
aF0.03637067601084709
aF0.09000452607870102
abag1
(g24
g3
Ntp709
Rp710
(lp711
F0.056970298290252686
aF0.028546631336212158
aF-0.3295779228210449
aF-0.9419755935668945
abababag1
(g2
g3
Ntp712
Rp713
(lp714
g1
(g7
g3
Ntp715
Rp716
(lp717
I854185
ag1
(g11
g3
Ntp718
Rp719
(lp720
I1517532308
aI256215229
abaS'world'
p721
abag1
(g16
g3
Ntp722
Rp723
(lp724
g1
(g20
g3
Ntp725
Rp726
(lp727
F1.6823959350585938
aF0.05325562134385109
aF0.09196720272302628
abag1
(g24
g3
Ntp728
Rp729
(lp730
F0.14103703200817108
aF0.031239740550518036
aF-0.3675368130207062
aF-0.918721616268158
abababag1
(g2
g3
Ntp731
Rp732
(lp733
g1
(g7
g3
Ntp734
Rp735
(lp736
I854195
ag1
(g11
g3
Ntp737
Rp738
(lp739
I1517532308
aI356061501
abaS'world'
p740
abag1
(g16
g3
Ntp741
Rp742
(lp743
g1
(g20
g3
Ntp744
Rp745
(lp746
F1.7076407670974731
aF0.07499216496944427
aF0.09134496748447418
abag1
(g24
g3
Ntp747
Rp748
(lp749
F0.11297734081745148
aF0.006396288517862558
aF-0.5727876424789429
aF-0.811855673789978
abababag1
(g2
g3
Ntp750
Rp751
(lp752
g1
(g7
g3
Ntp753
Rp754
(lp755
I854205
ag1
(g11
g3
Ntp756
Rp757
(lp758
I1517532308
aI455887838
abaS'world'
p759
abag1
(g16
g3
Ntp760
Rp761
(lp762
g1
(g20
g3
Ntp763
Rp764
(lp765
F1.7236180305480957
aF0.10061609745025635
aF0.09750518947839737
abag1
(g24
g3
Ntp766
Rp767
(lp768
F0.04114842042326927
aF0.04576679691672325
aF-0.6159526705741882
aF-0.7853753566741943
abababag1
(g2
g3
Ntp769
Rp770
(lp771
g1
(g7
g3
Ntp772
Rp773
(lp774
I854215
ag1
(g11
g3
Ntp775
Rp776
(lp777
I1517532308
aI556154620
abaS'world'
p778
abag1
(g16
g3
Ntp779
Rp780
(lp781
g1
(g20
g3
Ntp782
Rp783
(lp784
F1.7416987419128418
aF0.13271448016166687
aF0.08923104405403137
abag1
(g24
g3
Ntp785
Rp786
(lp787
F0.0906667485833168
aF-0.021843690425157547
aF-0.619884729385376
aF-0.7791311740875244
abababag1
(g2
g3
Ntp788
Rp789
(lp790
g1
(g7
g3
Ntp791
Rp792
(lp793
I854225
ag1
(g11
g3
Ntp794
Rp795
(lp796
I1517532308
aI656053805
abaS'world'
p797
abag1
(g16
g3
Ntp798
Rp799
(lp800
g1
(g20
g3
Ntp801
Rp802
(lp803
F1.7524096965789795
aF0.154867023229599
aF0.09284919500350952
abag1
(g24
g3
Ntp804
Rp805
(lp806
F-0.010986894369125366
aF-0.0034170972649008036
aF-0.7180653214454651
aF-0.695880651473999
abababag1
(g2
g3
Ntp807
Rp808
(lp809
g1
(g7
g3
Ntp810
Rp811
(lp812
I854235
ag1
(g11
g3
Ntp813
Rp814
(lp815
I1517532308
aI756010633
abaS'world'
p816
abag1
(g16
g3
Ntp817
Rp818
(lp819
g1
(g20
g3
Ntp820
Rp821
(lp822
F1.7561575174331665
aF0.18727777898311615
aF0.08801165968179703
abag1
(g24
g3
Ntp823
Rp824
(lp825
F0.08126234263181686
aF0.034344736486673355
aF-0.6421031951904297
aF-0.76152503490448
abababag1
(g2
g3
Ntp826
Rp827
(lp828
g1
(g7
g3
Ntp829
Rp830
(lp831
I854248
ag1
(g11
g3
Ntp832
Rp833
(lp834
I1517532308
aI885866835
abaS'world'
p835
abag1
(g16
g3
Ntp836
Rp837
(lp838
g1
(g20
g3
Ntp839
Rp840
(lp841
F1.7798254489898682
aF0.22770969569683075
aF0.09004809707403183
abag1
(g24
g3
Ntp842
Rp843
(lp844
F0.029946673661470413
aF-0.10319600254297256
aF-0.7171586155891418
aF-0.6885762214660645
abababag1
(g2
g3
Ntp845
Rp846
(lp847
g1
(g7
g3
Ntp848
Rp849
(lp850
I854258
ag1
(g11
g3
Ntp851
Rp852
(lp853
I1517532308
aI985991247
abaS'world'
p854
abag1
(g16
g3
Ntp855
Rp856
(lp857
g1
(g20
g3
Ntp858
Rp859
(lp860
F1.7704663276672363
aF0.24051183462142944
aF0.09569479525089264
abag1
(g24
g3
Ntp861
Rp862
(lp863
F0.14456477761268616
aF0.09590675681829453
aF-0.6210448741912842
aF-0.7643338441848755
abababag1
(g2
g3
Ntp864
Rp865
(lp866
g1
(g7
g3
Ntp867
Rp868
(lp869
I854269
ag1
(g11
g3
Ntp870
Rp871
(lp872
I1517532309
aI95943195
abaS'world'
p873
abag1
(g16
g3
Ntp874
Rp875
(lp876
g1
(g20
g3
Ntp877
Rp878
(lp879
F1.7902456521987915
aF0.2693440616130829
aF0.0917591080069542
abag1
(g24
g3
Ntp880
Rp881
(lp882
F-0.02854045107960701
aF-0.008032172918319702
aF-0.6161404848098755
aF-0.7870780825614929
abababag1
(g2
g3
Ntp883
Rp884
(lp885
g1
(g7
g3
Ntp886
Rp887
(lp888
I854278
ag1
(g11
g3
Ntp889
Rp890
(lp891
I1517532309
aI185913693
abaS'world'
p892
abag1
(g16
g3
Ntp893
Rp894
(lp895
g1
(g20
g3
Ntp896
Rp897
(lp898
F1.8002568483352661
aF0.28759950399398804
aF0.09317227452993393
abag1
(g24
g3
Ntp899
Rp900
(lp901
F0.01710382290184498
aF0.037901394069194794
aF-0.6264793872833252
aF-0.7783280611038208
abababag1
(g2
g3
Ntp902
Rp903
(lp904
g1
(g7
g3
Ntp905
Rp906
(lp907
I854288
ag1
(g11
g3
Ntp908
Rp909
(lp910
I1517532309
aI286020027
abaS'world'
p911
abag1
(g16
g3
Ntp912
Rp913
(lp914
g1
(g20
g3
Ntp915
Rp916
(lp917
F1.804851770401001
aF0.30806291103363037
aF0.09627551585435867
abag1
(g24
g3
Ntp918
Rp919
(lp920
F0.05603925138711929
aF0.07573314011096954
aF-0.683275580406189
aF-0.7240570783615112
abababag1
(g2
g3
Ntp921
Rp922
(lp923
g1
(g7
g3
Ntp924
Rp925
(lp926
I854299
ag1
(g11
g3
Ntp927
Rp928
(lp929
I1517532309
aI396087586
abaS'world'
p930
abag1
(g16
g3
Ntp931
Rp932
(lp933
g1
(g20
g3
Ntp934
Rp935
(lp936
F1.7928376197814941
aF0.33236658573150635
aF0.09124000370502472
abag1
(g24
g3
Ntp937
Rp938
(lp939
F0.06083652377128601
aF0.02906085178256035
aF-0.883001983165741
aF-0.46450182795524597
abababag1
(g2
g3
Ntp940
Rp941
(lp942
g1
(g7
g3
Ntp943
Rp944
(lp945
I854309
ag1
(g11
g3
Ntp946
Rp947
(lp948
I1517532309
aI495919202
abaS'world'
p949
abag1
(g16
g3
Ntp950
Rp951
(lp952
g1
(g20
g3
Ntp953
Rp954
(lp955
F1.7849622964859009
aF0.36693355441093445
aF0.10356907546520233
abag1
(g24
g3
Ntp956
Rp957
(lp958
F-0.07439076900482178
aF0.02368520386517048
aF-0.9085371494293213
aF-0.4104451537132263
abababa.