(lp0
ccopy_reg
_reconstructor
p1
(cgeometry_msgs.msg._PoseStamped
PoseStamped
p2
c__builtin__
object
p3
Ntp4
Rp5
(lp6
g1
(cstd_msgs.msg._Header
Header
p7
g3
Ntp8
Rp9
(lp10
I633606
ag1
(cgenpy.rostime
Time
p11
g3
Ntp12
Rp13
(lp14
I1518555440
aI289623226
abaS'world'
p15
abag1
(cgeometry_msgs.msg._Pose
Pose
p16
g3
Ntp17
Rp18
(lp19
g1
(cgeometry_msgs.msg._Point
Point
p20
g3
Ntp21
Rp22
(lp23
F0.6940677165985107
aF0.2921290099620819
aF0.05422065034508705
abag1
(cgeometry_msgs.msg._Quaternion
Quaternion
p24
g3
Ntp25
Rp26
(lp27
F-0.002495421329513192
aF-0.04418221488595009
aF0.708541989326477
aF-0.7042798399925232
abababag1
(g2
g3
Ntp28
Rp29
(lp30
g1
(g7
g3
Ntp31
Rp32
(lp33
I633611
ag1
(g11
g3
Ntp34
Rp35
(lp36
I1518555440
aI339729515
abaS'world'
p37
abag1
(g16
g3
Ntp38
Rp39
(lp40
g1
(g20
g3
Ntp41
Rp42
(lp43
F0.6940982341766357
aF0.29211142659187317
aF0.05406193435192108
abag1
(g24
g3
Ntp44
Rp45
(lp46
F-0.0017726628575474024
aF-0.04506403207778931
aF0.7082419991493225
aF-0.7045277953147888
abababag1
(g2
g3
Ntp47
Rp48
(lp49
g1
(g7
g3
Ntp50
Rp51
(lp52
I633620
ag1
(g11
g3
Ntp53
Rp54
(lp55
I1518555440
aI429471925
abaS'world'
p56
abag1
(g16
g3
Ntp57
Rp58
(lp59
g1
(g20
g3
Ntp60
Rp61
(lp62
F0.6940786242485046
aF0.29214730858802795
aF0.05425870418548584
abag1
(g24
g3
Ntp63
Rp64
(lp65
F-0.002291032113134861
aF-0.043697282671928406
aF0.7083408832550049
aF-0.7045130133628845
abababag1
(g2
g3
Ntp66
Rp67
(lp68
g1
(g7
g3
Ntp69
Rp70
(lp71
I633631
ag1
(g11
g3
Ntp72
Rp73
(lp74
I1518555440
aI533655688
abaS'world'
p75
abag1
(g16
g3
Ntp76
Rp77
(lp78
g1
(g20
g3
Ntp79
Rp80
(lp81
F0.6929654479026794
aF0.2794547379016876
aF0.06702078878879547
abag1
(g24
g3
Ntp82
Rp83
(lp84
F0.021451763808727264
aF-0.003389985766261816
aF0.7155673503875732
aF-0.6982060074806213
abababag1
(g2
g3
Ntp85
Rp86
(lp87
g1
(g7
g3
Ntp88
Rp89
(lp90
I633640
ag1
(g11
g3
Ntp91
Rp92
(lp93
I1518555440
aI629763563
abaS'world'
p94
abag1
(g16
g3
Ntp95
Rp96
(lp97
g1
(g20
g3
Ntp98
Rp99
(lp100
F0.6883898973464966
aF0.23760974407196045
aF0.05767165496945381
abag1
(g24
g3
Ntp101
Rp102
(lp103
F-0.006326041184365749
aF-0.06704452633857727
aF0.7793073654174805
aF-0.6230130791664124
abababag1
(g2
g3
Ntp104
Rp105
(lp106
g1
(g7
g3
Ntp107
Rp108
(lp109
I633656
ag1
(g11
g3
Ntp110
Rp111
(lp112
I1518555440
aI789715185
abaS'world'
p113
abag1
(g16
g3
Ntp114
Rp115
(lp116
g1
(g20
g3
Ntp117
Rp118
(lp119
F0.6943231225013733
aF0.21801640093326569
aF0.06348630040884018
abag1
(g24
g3
Ntp120
Rp121
(lp122
F0.02704058773815632
aF-0.033858444541692734
aF0.8150131106376648
aF-0.5778201222419739
abababag1
(g2
g3
Ntp123
Rp124
(lp125
g1
(g7
g3
Ntp126
Rp127
(lp128
I633657
ag1
(g11
g3
Ntp129
Rp130
(lp131
I1518555440
aI799989490
abaS'world'
p132
abag1
(g16
g3
Ntp133
Rp134
(lp135
g1
(g20
g3
Ntp136
Rp137
(lp138
F0.6940770745277405
aF0.21601735055446625
aF0.06405233591794968
abag1
(g24
g3
Ntp139
Rp140
(lp141
F0.020327826961874962
aF-0.03592503443360329
aF0.8096665143966675
aF-0.5854368805885315
abababag1
(g2
g3
Ntp142
Rp143
(lp144
g1
(g7
g3
Ntp145
Rp146
(lp147
I633666
ag1
(g11
g3
Ntp148
Rp149
(lp150
I1518555440
aI889667329
abaS'world'
p151
abag1
(g16
g3
Ntp152
Rp153
(lp154
g1
(g20
g3
Ntp155
Rp156
(lp157
F0.6819129586219788
aF0.189806267619133
aF0.05639157071709633
abag1
(g24
g3
Ntp158
Rp159
(lp160
F-0.004035894758999348
aF-0.00884801335632801
aF0.8252878785133362
aF-0.5646286606788635
abababag1
(g2
g3
Ntp161
Rp162
(lp163
g1
(g7
g3
Ntp164
Rp165
(lp166
I633677
ag1
(g11
g3
Ntp167
Rp168
(lp169
I1518555440
aI993287929
abaS'world'
p170
abag1
(g16
g3
Ntp171
Rp172
(lp173
g1
(g20
g3
Ntp174
Rp175
(lp176
F0.6824033856391907
aF0.17070764303207397
aF0.061395253986120224
abag1
(g24
g3
Ntp177
Rp178
(lp179
F0.052311159670352936
aF-0.04756785184144974
aF0.8124183416366577
aF-0.5787723064422607
abababag1
(g2
g3
Ntp180
Rp181
(lp182
g1
(g7
g3
Ntp183
Rp184
(lp185
I633686
ag1
(g11
g3
Ntp186
Rp187
(lp188
I1518555441
aI89623983
abaS'world'
p189
abag1
(g16
g3
Ntp190
Rp191
(lp192
g1
(g20
g3
Ntp193
Rp194
(lp195
F0.6793628334999084
aF0.1528649479150772
aF0.06172407791018486
abag1
(g24
g3
Ntp196
Rp197
(lp198
F0.005470153875648975
aF-0.049392662942409515
aF0.7883056998252869
aF-0.6132737994194031
abababag1
(g2
g3
Ntp199
Rp200
(lp201
g1
(g7
g3
Ntp202
Rp203
(lp204
I633696
ag1
(g11
g3
Ntp205
Rp206
(lp207
I1518555441
aI189629368
abaS'world'
p208
abag1
(g16
g3
Ntp209
Rp210
(lp211
g1
(g20
g3
Ntp212
Rp213
(lp214
F0.6693821549415588
aF0.12548068165779114
aF0.062048885971307755
abag1
(g24
g3
Ntp215
Rp216
(lp217
F-0.039908137172460556
aF-0.07649939507246017
aF0.7582592368125916
aF-0.6462184190750122
abababag1
(g2
g3
Ntp218
Rp219
(lp220
g1
(g7
g3
Ntp221
Rp222
(lp223
I633706
ag1
(g11
g3
Ntp224
Rp225
(lp226
I1518555441
aI289632452
abaS'world'
p227
abag1
(g16
g3
Ntp228
Rp229
(lp230
g1
(g20
g3
Ntp231
Rp232
(lp233
F0.6654996871948242
aF0.11730659008026123
aF0.06008712947368622
abag1
(g24
g3
Ntp234
Rp235
(lp236
F-0.01743040420114994
aF0.0473003052175045
aF0.6449915766716003
aF-0.7625252604484558
abababag1
(g2
g3
Ntp237
Rp238
(lp239
g1
(g7
g3
Ntp240
Rp241
(lp242
I633716
ag1
(g11
g3
Ntp243
Rp244
(lp245
I1518555441
aI389751751
abaS'world'
p246
abag1
(g16
g3
Ntp247
Rp248
(lp249
g1
(g20
g3
Ntp250
Rp251
(lp252
F0.6654449701309204
aF0.10718788951635361
aF0.061299633234739304
abag1
(g24
g3
Ntp253
Rp254
(lp255
F-0.00255804811604321
aF0.01184255350381136
aF0.6538881659507751
aF-0.7564941644668579
abababag1
(g2
g3
Ntp256
Rp257
(lp258
g1
(g7
g3
Ntp259
Rp260
(lp261
I633726
ag1
(g11
g3
Ntp262
Rp263
(lp264
I1518555441
aI489622779
abaS'world'
p265
abag1
(g16
g3
Ntp266
Rp267
(lp268
g1
(g20
g3
Ntp269
Rp270
(lp271
F0.6927081346511841
aF0.09041658043861389
aF0.06270315498113632
abag1
(g24
g3
Ntp272
Rp273
(lp274
F0.08217564970254898
aF-0.12842091917991638
aF0.5794672966003418
aF-0.8006078600883484
abababag1
(g2
g3
Ntp275
Rp276
(lp277
g1
(g7
g3
Ntp278
Rp279
(lp280
I633736
ag1
(g11
g3
Ntp281
Rp282
(lp283
I1518555441
aI589612028
abaS'world'
p284
abag1
(g16
g3
Ntp285
Rp286
(lp287
g1
(g20
g3
Ntp288
Rp289
(lp290
F0.6835831999778748
aF0.05293282866477966
aF0.061801664531230927
abag1
(g24
g3
Ntp291
Rp292
(lp293
F-0.048040978610515594
aF0.02052527666091919
aF0.6006228923797607
aF-0.7978239059448242
abababag1
(g2
g3
Ntp294
Rp295
(lp296
g1
(g7
g3
Ntp297
Rp298
(lp299
I633746
ag1
(g11
g3
Ntp300
Rp301
(lp302
I1518555441
aI689672934
abaS'world'
p303
abag1
(g16
g3
Ntp304
Rp305
(lp306
g1
(g20
g3
Ntp307
Rp308
(lp309
F0.6866031289100647
aF0.022163117304444313
aF0.0583544559776783
abag1
(g24
g3
Ntp310
Rp311
(lp312
F-0.08602779358625412
aF0.020912183448672295
aF0.5398487448692322
aF-0.8370933532714844
abababag1
(g2
g3
Ntp313
Rp314
(lp315
g1
(g7
g3
Ntp316
Rp317
(lp318
I633756
ag1
(g11
g3
Ntp319
Rp320
(lp321
I1518555441
aI789623754
abaS'world'
p322
abag1
(g16
g3
Ntp323
Rp324
(lp325
g1
(g20
g3
Ntp326
Rp327
(lp328
F0.7123120427131653
aF-0.009272354654967785
aF0.05633692070841789
abag1
(g24
g3
Ntp329
Rp330
(lp331
F0.005137352738529444
aF0.005434409249573946
aF0.545021653175354
aF-0.8383886218070984
abababag1
(g2
g3
Ntp332
Rp333
(lp334
g1
(g7
g3
Ntp335
Rp336
(lp337
I633766
ag1
(g11
g3
Ntp338
Rp339
(lp340
I1518555441
aI889681248
abaS'world'
p341
abag1
(g16
g3
Ntp342
Rp343
(lp344
g1
(g20
g3
Ntp345
Rp346
(lp347
F0.7467235326766968
aF-0.046116236597299576
aF0.0644841268658638
abag1
(g24
g3
Ntp348
Rp349
(lp350
F0.02129272185266018
aF0.0015050583751872182
aF0.48243674635887146
aF-0.8756707310676575
abababag1
(g2
g3
Ntp351
Rp352
(lp353
g1
(g7
g3
Ntp354
Rp355
(lp356
I633776
ag1
(g11
g3
Ntp357
Rp358
(lp359
I1518555441
aI989700368
abaS'world'
p360
abag1
(g16
g3
Ntp361
Rp362
(lp363
g1
(g20
g3
Ntp364
Rp365
(lp366
F0.7815069556236267
aF-0.07849927991628647
aF0.05418732389807701
abag1
(g24
g3
Ntp367
Rp368
(lp369
F0.060178209096193314
aF-0.0473920963704586
aF0.3820336163043976
aF-0.9209684729576111
abababag1
(g2
g3
Ntp370
Rp371
(lp372
g1
(g7
g3
Ntp373
Rp374
(lp375
I633786
ag1
(g11
g3
Ntp376
Rp377
(lp378
I1518555442
aI89736408
abaS'world'
p379
abag1
(g16
g3
Ntp380
Rp381
(lp382
g1
(g20
g3
Ntp383
Rp384
(lp385
F0.7988536953926086
aF-0.10536112636327744
aF0.070954829454422
abag1
(g24
g3
Ntp386
Rp387
(lp388
F0.005820546764880419
aF0.18032698333263397
aF0.40868180990219116
aF-0.8946660757064819
abababag1
(g2
g3
Ntp389
Rp390
(lp391
g1
(g7
g3
Ntp392
Rp393
(lp394
I633796
ag1
(g11
g3
Ntp395
Rp396
(lp397
I1518555442
aI189710875
abaS'world'
p398
abag1
(g16
g3
Ntp399
Rp400
(lp401
g1
(g20
g3
Ntp402
Rp403
(lp404
F0.8169423341751099
aF-0.12988358736038208
aF0.06048014387488365
abag1
(g24
g3
Ntp405
Rp406
(lp407
F-0.0013137065107002854
aF0.01933733932673931
aF0.5356701016426086
aF-0.8442049622535706
abababag1
(g2
g3
Ntp408
Rp409
(lp410
g1
(g7
g3
Ntp411
Rp412
(lp413
I633806
ag1
(g11
g3
Ntp414
Rp415
(lp416
I1518555442
aI289705449
abaS'world'
p417
abag1
(g16
g3
Ntp418
Rp419
(lp420
g1
(g20
g3
Ntp421
Rp422
(lp423
F0.8291849493980408
aF-0.15969932079315186
aF0.07041674852371216
abag1
(g24
g3
Ntp424
Rp425
(lp426
F0.1096002459526062
aF0.05125150829553604
aF0.5317031145095825
aF-0.8382440209388733
abababag1
(g2
g3
Ntp427
Rp428
(lp429
g1
(g7
g3
Ntp430
Rp431
(lp432
I633816
ag1
(g11
g3
Ntp433
Rp434
(lp435
I1518555442
aI389703374
abaS'world'
p436
abag1
(g16
g3
Ntp437
Rp438
(lp439
g1
(g20
g3
Ntp440
Rp441
(lp442
F0.8451902866363525
aF-0.19638030230998993
aF0.05987187474966049
abag1
(g24
g3
Ntp443
Rp444
(lp445
F0.07944586127996445
aF-0.09730979800224304
aF0.5304853916168213
aF-0.8383343815803528
abababag1
(g2
g3
Ntp446
Rp447
(lp448
g1
(g7
g3
Ntp449
Rp450
(lp451
I633826
ag1
(g11
g3
Ntp452
Rp453
(lp454
I1518555442
aI489814702
abaS'world'
p455
abag1
(g16
g3
Ntp456
Rp457
(lp458
g1
(g20
g3
Ntp459
Rp460
(lp461
F0.859555721282959
aF-0.218830406665802
aF0.062432002276182175
abag1
(g24
g3
Ntp462
Rp463
(lp464
F0.08005538582801819
aF-0.03384167701005936
aF0.35023778676986694
aF-0.9326196312904358
abababag1
(g2
g3
Ntp465
Rp466
(lp467
g1
(g7
g3
Ntp468
Rp469
(lp470
I633836
ag1
(g11
g3
Ntp471
Rp472
(lp473
I1518555442
aI589572964
abaS'world'
p474
abag1
(g16
g3
Ntp475
Rp476
(lp477
g1
(g20
g3
Ntp478
Rp479
(lp480
F0.8663153052330017
aF-0.2324671894311905
aF0.06321273744106293
abag1
(g24
g3
Ntp481
Rp482
(lp483
F0.035482149571180344
aF0.013501160778105259
aF0.21052005887031555
aF-0.9768520593643188
abababag1
(g2
g3
Ntp484
Rp485
(lp486
g1
(g7
g3
Ntp487
Rp488
(lp489
I633846
ag1
(g11
g3
Ntp490
Rp491
(lp492
I1518555442
aI689797497
abaS'world'
p493
abag1
(g16
g3
Ntp494
Rp495
(lp496
g1
(g20
g3
Ntp497
Rp498
(lp499
F0.8799881339073181
aF-0.2342197746038437
aF0.06324873119592667
abag1
(g24
g3
Ntp500
Rp501
(lp502
F0.05837526172399521
aF0.020682448521256447
aF0.16914688050746918
aF-0.9836431741714478
abababag1
(g2
g3
Ntp503
Rp504
(lp505
g1
(g7
g3
Ntp506
Rp507
(lp508
I633856
ag1
(g11
g3
Ntp509
Rp510
(lp511
I1518555442
aI789685455
abaS'world'
p512
abag1
(g16
g3
Ntp513
Rp514
(lp515
g1
(g20
g3
Ntp516
Rp517
(lp518
F0.9118135571479797
aF-0.2466558963060379
aF0.05999575927853584
abag1
(g24
g3
Ntp519
Rp520
(lp521
F-0.0839235782623291
aF-0.00082854472566396
aF0.057227376848459244
aF-0.9948272109031677
abababag1
(g2
g3
Ntp522
Rp523
(lp524
g1
(g7
g3
Ntp525
Rp526
(lp527
I633866
ag1
(g11
g3
Ntp528
Rp529
(lp530
I1518555442
aI889655462
abaS'world'
p531
abag1
(g16
g3
Ntp532
Rp533
(lp534
g1
(g20
g3
Ntp535
Rp536
(lp537
F0.9321572184562683
aF-0.23000605404376984
aF0.0590854287147522
abag1
(g24
g3
Ntp538
Rp539
(lp540
F0.03549643233418465
aF0.10581289231777191
aF-0.09944488853216171
aF-0.9887641072273254
abababag1
(g2
g3
Ntp541
Rp542
(lp543
g1
(g7
g3
Ntp544
Rp545
(lp546
I633876
ag1
(g11
g3
Ntp547
Rp548
(lp549
I1518555442
aI989710699
abaS'world'
p550
abag1
(g16
g3
Ntp551
Rp552
(lp553
g1
(g20
g3
Ntp554
Rp555
(lp556
F0.9501171112060547
aF-0.21932703256607056
aF0.06664731353521347
abag1
(g24
g3
Ntp557
Rp558
(lp559
F0.043252840638160706
aF0.016542889177799225
aF-0.1826632022857666
aF-0.9820844531059265
abababag1
(g2
g3
Ntp560
Rp561
(lp562
g1
(g7
g3
Ntp563
Rp564
(lp565
I633886
ag1
(g11
g3
Ntp566
Rp567
(lp568
I1518555443
aI89802273
abaS'world'
p569
abag1
(g16
g3
Ntp570
Rp571
(lp572
g1
(g20
g3
Ntp573
Rp574
(lp575
F0.9682250022888184
aF-0.2119077444076538
aF0.05322612076997757
abag1
(g24
g3
Ntp576
Rp577
(lp578
F-0.0240221805870533
aF-0.026538420468568802
aF-0.1262465864419937
aF-0.9913528561592102
abababag1
(g2
g3
Ntp579
Rp580
(lp581
g1
(g7
g3
Ntp582
Rp583
(lp584
I633896
ag1
(g11
g3
Ntp585
Rp586
(lp587
I1518555443
aI189756251
abaS'world'
p588
abag1
(g16
g3
Ntp589
Rp590
(lp591
g1
(g20
g3
Ntp592
Rp593
(lp594
F0.9859166741371155
aF-0.1963399350643158
aF0.0618571862578392
abag1
(g24
g3
Ntp595
Rp596
(lp597
F0.06946025043725967
aF0.00011960807751165703
aF-0.11770927906036377
aF-0.9906158447265625
abababag1
(g2
g3
Ntp598
Rp599
(lp600
g1
(g7
g3
Ntp601
Rp602
(lp603
I633906
ag1
(g11
g3
Ntp604
Rp605
(lp606
I1518555443
aI289740036
abaS'world'
p607
abag1
(g16
g3
Ntp608
Rp609
(lp610
g1
(g20
g3
Ntp611
Rp612
(lp613
F1.0176640748977661
aF-0.18160469830036163
aF0.052465375512838364
abag1
(g24
g3
Ntp614
Rp615
(lp616
F-0.006113871932029724
aF-0.050102680921554565
aF-0.2097989171743393
aF-0.9764409065246582
abababag1
(g2
g3
Ntp617
Rp618
(lp619
g1
(g7
g3
Ntp620
Rp621
(lp622
I633916
ag1
(g11
g3
Ntp623
Rp624
(lp625
I1518555443
aI383487079
abaS'world'
p626
abag1
(g16
g3
Ntp627
Rp628
(lp629
g1
(g20
g3
Ntp630
Rp631
(lp632
F1.017988681793213
aF-0.1622965931892395
aF0.0667673796415329
abag1
(g24
g3
Ntp633
Rp634
(lp635
F0.07829779386520386
aF0.13297909498214722
aF-0.2295110821723938
aF-0.9609947204589844
abababag1
(g2
g3
Ntp636
Rp637
(lp638
g1
(g7
g3
Ntp639
Rp640
(lp641
I633926
ag1
(g11
g3
Ntp642
Rp643
(lp644
I1518555443
aI489731116
abaS'world'
p645
abag1
(g16
g3
Ntp646
Rp647
(lp648
g1
(g20
g3
Ntp649
Rp650
(lp651
F1.037040114402771
aF-0.14544568955898285
aF0.05667126551270485
abag1
(g24
g3
Ntp652
Rp653
(lp654
F0.06263560056686401
aF-0.015775535255670547
aF-0.36314162611961365
aF-0.9294924139976501
abababag1
(g2
g3
Ntp655
Rp656
(lp657
g1
(g7
g3
Ntp658
Rp659
(lp660
I633936
ag1
(g11
g3
Ntp661
Rp662
(lp663
I1518555443
aI589861523
abaS'world'
p664
abag1
(g16
g3
Ntp665
Rp666
(lp667
g1
(g20
g3
Ntp668
Rp669
(lp670
F1.0599795579910278
aF-0.14990682899951935
aF0.06009212136268616
abag1
(g24
g3
Ntp671
Rp672
(lp673
F-0.03941814601421356
aF-0.05241192504763603
aF-0.2468501180410385
aF-0.9668321013450623
abababag1
(g2
g3
Ntp674
Rp675
(lp676
g1
(g7
g3
Ntp677
Rp678
(lp679
I633946
ag1
(g11
g3
Ntp680
Rp681
(lp682
I1518555443
aI689905770
abaS'world'
p683
abag1
(g16
g3
Ntp684
Rp685
(lp686
g1
(g20
g3
Ntp687
Rp688
(lp689
F1.0658820867538452
aF-0.12370993196964264
aF0.0635535717010498
abag1
(g24
g3
Ntp690
Rp691
(lp692
F0.03638479486107826
aF0.022941095754504204
aF-0.3853719234466553
aF-0.9217582941055298
abababag1
(g2
g3
Ntp693
Rp694
(lp695
g1
(g7
g3
Ntp696
Rp697
(lp698
I633956
ag1
(g11
g3
Ntp699
Rp700
(lp701
I1518555443
aI789734926
abaS'world'
p702
abag1
(g16
g3
Ntp703
Rp704
(lp705
g1
(g20
g3
Ntp706
Rp707
(lp708
F1.0839405059814453
aF-0.09771615266799927
aF0.06192950904369354
abag1
(g24
g3
Ntp709
Rp710
(lp711
F-0.005423723254352808
aF-0.0410984642803669
aF-0.3783998489379883
aF-0.9247134923934937
abababag1
(g2
g3
Ntp712
Rp713
(lp714
g1
(g7
g3
Ntp715
Rp716
(lp717
I633966
ag1
(g11
g3
Ntp718
Rp719
(lp720
I1518555443
aI889779889
abaS'world'
p721
abag1
(g16
g3
Ntp722
Rp723
(lp724
g1
(g20
g3
Ntp725
Rp726
(lp727
F1.0916320085525513
aF-0.07023273408412933
aF0.0737973302602768
abag1
(g24
g3
Ntp728
Rp729
(lp730
F-0.07003995776176453
aF0.009305115789175034
aF-0.39593738317489624
aF-0.9155552387237549
abababag1
(g2
g3
Ntp731
Rp732
(lp733
g1
(g7
g3
Ntp734
Rp735
(lp736
I633976
ag1
(g11
g3
Ntp737
Rp738
(lp739
I1518555443
aI989795363
abaS'world'
p740
abag1
(g16
g3
Ntp741
Rp742
(lp743
g1
(g20
g3
Ntp744
Rp745
(lp746
F1.102782130241394
aF-0.03318643569946289
aF0.06280338764190674
abag1
(g24
g3
Ntp747
Rp748
(lp749
F0.04692045599222183
aF0.016991447657346725
aF-0.47253912687301636
aF-0.879895806312561
abababag1
(g2
g3
Ntp750
Rp751
(lp752
g1
(g7
g3
Ntp753
Rp754
(lp755
I633986
ag1
(g11
g3
Ntp756
Rp757
(lp758
I1518555444
aI83846218
abaS'world'
p759
abag1
(g16
g3
Ntp760
Rp761
(lp762
g1
(g20
g3
Ntp763
Rp764
(lp765
F1.119909644126892
aF-0.008405385538935661
aF0.0556996613740921
abag1
(g24
g3
Ntp766
Rp767
(lp768
F0.10146167129278183
aF-0.05898279324173927
aF-0.53329998254776
aF-0.8377456068992615
abababag1
(g2
g3
Ntp769
Rp770
(lp771
g1
(g7
g3
Ntp772
Rp773
(lp774
I633996
ag1
(g11
g3
Ntp775
Rp776
(lp777
I1518555444
aI189698612
abaS'world'
p778
abag1
(g16
g3
Ntp779
Rp780
(lp781
g1
(g20
g3
Ntp782
Rp783
(lp784
F1.1147949695587158
aF0.0010419116588309407
aF0.062184713780879974
abag1
(g24
g3
Ntp785
Rp786
(lp787
F0.00011646286293398589
aF0.13874490559101105
aF-0.5468125939369202
aF-0.8256790637969971
abababag1
(g2
g3
Ntp788
Rp789
(lp790
g1
(g7
g3
Ntp791
Rp792
(lp793
I634006
ag1
(g11
g3
Ntp794
Rp795
(lp796
I1518555444
aI289770345
abaS'world'
p797
abag1
(g16
g3
Ntp798
Rp799
(lp800
g1
(g20
g3
Ntp801
Rp802
(lp803
F1.1177023649215698
aF0.01818818412721157
aF0.06238749995827675
abag1
(g24
g3
Ntp804
Rp805
(lp806
F0.05231599137187004
aF0.03911738842725754
aF-0.5912726521492004
aF-0.803821861743927
abababag1
(g2
g3
Ntp807
Rp808
(lp809
g1
(g7
g3
Ntp810
Rp811
(lp812
I634016
ag1
(g11
g3
Ntp813
Rp814
(lp815
I1518555444
aI389796680
abaS'world'
p816
abag1
(g16
g3
Ntp817
Rp818
(lp819
g1
(g20
g3
Ntp820
Rp821
(lp822
F1.1250038146972656
aF0.03457377851009369
aF0.06527499109506607
abag1
(g24
g3
Ntp823
Rp824
(lp825
F-0.0166674442589283
aF0.0034926028456538916
aF-0.6061456799507141
aF-0.7951713800430298
abababag1
(g2
g3
Ntp826
Rp827
(lp828
g1
(g7
g3
Ntp829
Rp830
(lp831
I634026
ag1
(g11
g3
Ntp832
Rp833
(lp834
I1518555444
aI489717966
abaS'world'
p835
abag1
(g16
g3
Ntp836
Rp837
(lp838
g1
(g20
g3
Ntp839
Rp840
(lp841
F1.1234263181686401
aF0.06799106299877167
aF0.056014034897089005
abag1
(g24
g3
Ntp842
Rp843
(lp844
F0.06483237445354462
aF0.011332469061017036
aF-0.5966131687164307
aF-0.7998256087303162
abababag1
(g2
g3
Ntp845
Rp846
(lp847
g1
(g7
g3
Ntp848
Rp849
(lp850
I634036
ag1
(g11
g3
Ntp851
Rp852
(lp853
I1518555444
aI589649090
abaS'world'
p854
abag1
(g16
g3
Ntp855
Rp856
(lp857
g1
(g20
g3
Ntp858
Rp859
(lp860
F1.1341274976730347
aF0.08156741410493851
aF0.06578521430492401
abag1
(g24
g3
Ntp861
Rp862
(lp863
F-0.08585759997367859
aF-0.040282875299453735
aF-0.6630253791809082
aF-0.7425652146339417
abababag1
(g2
g3
Ntp864
Rp865
(lp866
g1
(g7
g3
Ntp867
Rp868
(lp869
I634046
ag1
(g11
g3
Ntp870
Rp871
(lp872
I1518555444
aI689720649
abaS'world'
p873
abag1
(g16
g3
Ntp874
Rp875
(lp876
g1
(g20
g3
Ntp877
Rp878
(lp879
F1.13973069190979
aF0.10482097417116165
aF0.058814890682697296
abag1
(g24
g3
Ntp880
Rp881
(lp882
F-0.004906540736556053
aF0.025669077411293983
aF-0.7376274466514587
aF-0.674701988697052
abababag1
(g2
g3
Ntp883
Rp884
(lp885
g1
(g7
g3
Ntp886
Rp887
(lp888
I634056
ag1
(g11
g3
Ntp889
Rp890
(lp891
I1518555444
aI789775388
abaS'world'
p892
abag1
(g16
g3
Ntp893
Rp894
(lp895
g1
(g20
g3
Ntp896
Rp897
(lp898
F1.152488112449646
aF0.12555445730686188
aF0.06741978973150253
abag1
(g24
g3
Ntp899
Rp900
(lp901
F-0.05538847669959068
aF0.07003413885831833
aF-0.6257489323616028
aF-0.7748972773551941
abababag1
(g2
g3
Ntp902
Rp903
(lp904
g1
(g7
g3
Ntp905
Rp906
(lp907
I634066
ag1
(g11
g3
Ntp908
Rp909
(lp910
I1518555444
aI889688652
abaS'world'
p911
abag1
(g16
g3
Ntp912
Rp913
(lp914
g1
(g20
g3
Ntp915
Rp916
(lp917
F1.1561652421951294
aF0.1618058979511261
aF0.05840616300702095
abag1
(g24
g3
Ntp918
Rp919
(lp920
F0.05890461429953575
aF0.07428395003080368
aF-0.5429113507270813
aF-0.8344215750694275
abababag1
(g2
g3
Ntp921
Rp922
(lp923
g1
(g7
g3
Ntp924
Rp925
(lp926
I634076
ag1
(g11
g3
Ntp927
Rp928
(lp929
I1518555444
aI989769495
abaS'world'
p930
abag1
(g16
g3
Ntp931
Rp932
(lp933
g1
(g20
g3
Ntp934
Rp935
(lp936
F1.1685551404953003
aF0.17168664932250977
aF0.061344657093286514
abag1
(g24
g3
Ntp937
Rp938
(lp939
F0.003190314397215843
aF-0.01287334505468607
aF-0.43663865327835083
aF-0.8995392918586731
abababag1
(g2
g3
Ntp940
Rp941
(lp942
g1
(g7
g3
Ntp943
Rp944
(lp945
I634086
ag1
(g11
g3
Ntp946
Rp947
(lp948
I1518555445
aI89716745
abaS'world'
p949
abag1
(g16
g3
Ntp950
Rp951
(lp952
g1
(g20
g3
Ntp953
Rp954
(lp955
F1.1761751174926758
aF0.19094626605510712
aF0.06161930039525032
abag1
(g24
g3
Ntp956
Rp957
(lp958
F0.06915769726037979
aF0.02524205483496189
aF-0.4646335244178772
aF-0.882437527179718
abababa.