(lp0
ccopy_reg
_reconstructor
p1
(cgeometry_msgs.msg._PoseStamped
PoseStamped
p2
c__builtin__
object
p3
Ntp4
Rp5
(lp6
g1
(cstd_msgs.msg._Header
Header
p7
g3
Ntp8
Rp9
(lp10
I634397
ag1
(cgenpy.rostime
Time
p11
g3
Ntp12
Rp13
(lp14
I1518555448
aI199753842
abaS'world'
p15
abag1
(cgeometry_msgs.msg._Pose
Pose
p16
g3
Ntp17
Rp18
(lp19
g1
(cgeometry_msgs.msg._Point
Point
p20
g3
Ntp21
Rp22
(lp23
F1.176587700843811
aF0.21973466873168945
aF0.05893441289663315
abag1
(cgeometry_msgs.msg._Quaternion
Quaternion
p24
g3
Ntp25
Rp26
(lp27
F0.0834876298904419
aF0.04864441603422165
aF-0.6122048497200012
aF-0.7847731113433838
abababag1
(g2
g3
Ntp28
Rp29
(lp30
g1
(g7
g3
Ntp31
Rp32
(lp33
I634403
ag1
(g11
g3
Ntp34
Rp35
(lp36
I1518555448
aI259784041
abaS'world'
p37
abag1
(g16
g3
Ntp38
Rp39
(lp40
g1
(g20
g3
Ntp41
Rp42
(lp43
F1.1765849590301514
aF0.21975551545619965
aF0.058933015912771225
abag1
(g24
g3
Ntp44
Rp45
(lp46
F0.08359359204769135
aF0.048310499638319016
aF-0.6122867465019226
aF-0.7847185730934143
abababag1
(g2
g3
Ntp47
Rp48
(lp49
g1
(g7
g3
Ntp50
Rp51
(lp52
I634411
ag1
(g11
g3
Ntp53
Rp54
(lp55
I1518555448
aI339812657
abaS'world'
p56
abag1
(g16
g3
Ntp57
Rp58
(lp59
g1
(g20
g3
Ntp60
Rp61
(lp62
F1.1765402555465698
aF0.21988369524478912
aF0.05919910967350006
abag1
(g24
g3
Ntp63
Rp64
(lp65
F0.08139867335557938
aF0.0502152256667614
aF-0.6139198541641235
aF-0.7835529446601868
abababag1
(g2
g3
Ntp66
Rp67
(lp68
g1
(g7
g3
Ntp69
Rp70
(lp71
I634421
ag1
(g11
g3
Ntp72
Rp73
(lp74
I1518555448
aI439961317
abaS'world'
p75
abag1
(g16
g3
Ntp76
Rp77
(lp78
g1
(g20
g3
Ntp79
Rp80
(lp81
F1.1960787773132324
aF0.22473201155662537
aF0.06527858227491379
abag1
(g24
g3
Ntp82
Rp83
(lp84
F-0.06314481049776077
aF-0.00973732490092516
aF-0.6541058421134949
aF-0.7536999583244324
abababag1
(g2
g3
Ntp85
Rp86
(lp87
g1
(g7
g3
Ntp88
Rp89
(lp90
I634430
ag1
(g11
g3
Ntp91
Rp92
(lp93
I1518555448
aI523831952
abaS'world'
p94
abag1
(g16
g3
Ntp95
Rp96
(lp97
g1
(g20
g3
Ntp98
Rp99
(lp100
F1.1976476907730103
aF0.2476072758436203
aF0.06567338109016418
abag1
(g24
g3
Ntp101
Rp102
(lp103
F0.038153208792209625
aF0.07877383381128311
aF-0.642545223236084
aF-0.7612323760986328
abababag1
(g2
g3
Ntp104
Rp105
(lp106
g1
(g7
g3
Ntp107
Rp108
(lp109
I634441
ag1
(g11
g3
Ntp110
Rp111
(lp112
I1518555448
aI633578619
abaS'world'
p113
abag1
(g16
g3
Ntp114
Rp115
(lp116
g1
(g20
g3
Ntp117
Rp118
(lp119
F1.2008413076400757
aF0.28478291630744934
aF0.06553767621517181
abag1
(g24
g3
Ntp120
Rp121
(lp122
F-0.058805037289857864
aF0.024575985968112946
aF-0.6346368193626404
aF-0.7701780796051025
abababag1
(g2
g3
Ntp123
Rp124
(lp125
g1
(g7
g3
Ntp126
Rp127
(lp128
I634451
ag1
(g11
g3
Ntp129
Rp130
(lp131
I1518555448
aI739821807
abaS'world'
p132
abag1
(g16
g3
Ntp133
Rp134
(lp135
g1
(g20
g3
Ntp136
Rp137
(lp138
F1.2035808563232422
aF0.30487358570098877
aF0.06327366083860397
abag1
(g24
g3
Ntp139
Rp140
(lp141
F-0.07591969519853592
aF-0.004303012974560261
aF-0.5570201873779297
aF-0.827010452747345
abababag1
(g2
g3
Ntp142
Rp143
(lp144
g1
(g7
g3
Ntp145
Rp146
(lp147
I634461
ag1
(g11
g3
Ntp148
Rp149
(lp150
I1518555448
aI839828711
abaS'world'
p151
abag1
(g16
g3
Ntp152
Rp153
(lp154
g1
(g20
g3
Ntp155
Rp156
(lp157
F1.2257987260818481
aF0.30917397141456604
aF0.05825769528746605
abag1
(g24
g3
Ntp158
Rp159
(lp160
F-0.018121961504220963
aF-0.03712959960103035
aF-0.4245298504829407
aF-0.9044708609580994
abababag1
(g2
g3
Ntp161
Rp162
(lp163
g1
(g7
g3
Ntp164
Rp165
(lp166
I634471
ag1
(g11
g3
Ntp167
Rp168
(lp169
I1518555448
aI939835857
abaS'world'
p170
abag1
(g16
g3
Ntp171
Rp172
(lp173
g1
(g20
g3
Ntp174
Rp175
(lp176
F1.219061255455017
aF0.3314717710018158
aF0.0713236853480339
abag1
(g24
g3
Ntp177
Rp178
(lp179
F0.05198562145233154
aF0.12393664568662643
aF-0.4860190153121948
aF-0.8635525107383728
abababag1
(g2
g3
Ntp180
Rp181
(lp182
g1
(g7
g3
Ntp183
Rp184
(lp185
I634481
ag1
(g11
g3
Ntp186
Rp187
(lp188
I1518555449
aI33831810
abaS'world'
p189
abag1
(g16
g3
Ntp190
Rp191
(lp192
g1
(g20
g3
Ntp193
Rp194
(lp195
F1.2240755558013916
aF0.3639632761478424
aF0.056327156722545624
abag1
(g24
g3
Ntp196
Rp197
(lp198
F0.04682457447052002
aF-0.047951146960258484
aF-0.6857220530509949
aF-0.7247713804244995
abababag1
(g2
g3
Ntp199
Rp200
(lp201
g1
(g7
g3
Ntp202
Rp203
(lp204
I634492
ag1
(g11
g3
Ntp205
Rp206
(lp207
I1518555449
aI143581794
abaS'world'
p208
abag1
(g16
g3
Ntp209
Rp210
(lp211
g1
(g20
g3
Ntp212
Rp213
(lp214
F1.2333054542541504
aF0.3794565796852112
aF0.07840881496667862
abag1
(g24
g3
Ntp215
Rp216
(lp217
F-0.10431622713804245
aF0.13122399151325226
aF-0.5758327841758728
aF-0.8001969456672668
abababag1
(g2
g3
Ntp218
Rp219
(lp220
g1
(g7
g3
Ntp221
Rp222
(lp223
I634501
ag1
(g11
g3
Ntp224
Rp225
(lp226
I1518555449
aI239878314
abaS'world'
p227
abag1
(g16
g3
Ntp228
Rp229
(lp230
g1
(g20
g3
Ntp231
Rp232
(lp233
F1.2400864362716675
aF0.4139139652252197
aF0.05897878482937813
abag1
(g24
g3
Ntp234
Rp235
(lp236
F0.0904785618185997
aF0.013217429630458355
aF-0.5152643322944641
aF-0.852139413356781
abababag1
(g2
g3
Ntp237
Rp238
(lp239
g1
(g7
g3
Ntp240
Rp241
(lp242
I634511
ag1
(g11
g3
Ntp243
Rp244
(lp245
I1518555449
aI339793226
abaS'world'
p246
abag1
(g16
g3
Ntp247
Rp248
(lp249
g1
(g20
g3
Ntp250
Rp251
(lp252
F1.2576260566711426
aF0.44964414834976196
aF0.06707029044628143
abag1
(g24
g3
Ntp253
Rp254
(lp255
F-0.11525360494852066
aF-0.08804426342248917
aF-0.6809036135673523
aF-0.717868447303772
abababag1
(g2
g3
Ntp256
Rp257
(lp258
g1
(g7
g3
Ntp259
Rp260
(lp261
I634520
ag1
(g11
g3
Ntp262
Rp263
(lp264
I1518555449
aI429996364
abaS'world'
p265
abag1
(g16
g3
Ntp266
Rp267
(lp268
g1
(g20
g3
Ntp269
Rp270
(lp271
F1.2461351156234741
aF0.46708324551582336
aF0.063337042927742
abag1
(g24
g3
Ntp272
Rp273
(lp274
F0.04040830582380295
aF0.108147993683815
aF-0.7453920245170593
aF-0.6565531492233276
abababag1
(g2
g3
Ntp275
Rp276
(lp277
g1
(g7
g3
Ntp278
Rp279
(lp280
I634531
ag1
(g11
g3
Ntp281
Rp282
(lp283
I1518555449
aI539917205
abaS'world'
p284
abag1
(g16
g3
Ntp285
Rp286
(lp287
g1
(g20
g3
Ntp288
Rp289
(lp290
F1.2365922927856445
aF0.4752671718597412
aF0.05898282304406166
abag1
(g24
g3
Ntp291
Rp292
(lp293
F-0.00205941847525537
aF-0.0017871910240501165
aF-0.8143471479415894
aF-0.5803717374801636
abababag1
(g2
g3
Ntp294
Rp295
(lp296
g1
(g7
g3
Ntp297
Rp298
(lp299
I634541
ag1
(g11
g3
Ntp300
Rp301
(lp302
I1518555449
aI639876928
abaS'world'
p303
abag1
(g16
g3
Ntp304
Rp305
(lp306
g1
(g20
g3
Ntp307
Rp308
(lp309
F1.2290780544281006
aF0.49282899498939514
aF0.07337699830532074
abag1
(g24
g3
Ntp310
Rp311
(lp312
F-0.024942835792899132
aF0.09649598598480225
aF-0.8057358264923096
aF-0.5838288068771362
abababag1
(g2
g3
Ntp313
Rp314
(lp315
g1
(g7
g3
Ntp316
Rp317
(lp318
I634552
ag1
(g11
g3
Ntp319
Rp320
(lp321
I1518555449
aI743630613
abaS'world'
p322
abag1
(g16
g3
Ntp323
Rp324
(lp325
g1
(g20
g3
Ntp326
Rp327
(lp328
F1.2085809707641602
aF0.5316570997238159
aF0.06761102378368378
abag1
(g24
g3
Ntp329
Rp330
(lp331
F0.038804542273283005
aF-0.0010777926072478294
aF-0.8503984808921814
aF-0.5247052311897278
abababag1
(g2
g3
Ntp332
Rp333
(lp334
g1
(g7
g3
Ntp335
Rp336
(lp337
I634560
ag1
(g11
g3
Ntp338
Rp339
(lp340
I1518555449
aI829761673
abaS'world'
p341
abag1
(g16
g3
Ntp342
Rp343
(lp344
g1
(g20
g3
Ntp345
Rp346
(lp347
F1.2017853260040283
aF0.5403436422348022
aF0.0692494735121727
abag1
(g24
g3
Ntp348
Rp349
(lp350
F-0.10452436655759811
aF0.15018430352210999
aF-0.8658356070518494
aF-0.4656696021556854
abababag1
(g2
g3
Ntp351
Rp352
(lp353
g1
(g7
g3
Ntp354
Rp355
(lp356
I634571
ag1
(g11
g3
Ntp357
Rp358
(lp359
I1518555449
aI939854306
abaS'world'
p360
abag1
(g16
g3
Ntp361
Rp362
(lp363
g1
(g20
g3
Ntp364
Rp365
(lp366
F1.1888307332992554
aF0.5454956293106079
aF0.06704069674015045
abag1
(g24
g3
Ntp367
Rp368
(lp369
F-0.03352588787674904
aF0.020944351330399513
aF-0.9799479842185974
aF-0.19529275596141815
abababag1
(g2
g3
Ntp370
Rp371
(lp372
g1
(g7
g3
Ntp373
Rp374
(lp375
I634581
ag1
(g11
g3
Ntp376
Rp377
(lp378
I1518555450
aI39827696
abaS'world'
p379
abag1
(g16
g3
Ntp380
Rp381
(lp382
g1
(g20
g3
Ntp383
Rp384
(lp385
F1.1621919870376587
aF0.5427446365356445
aF0.06906039267778397
abag1
(g24
g3
Ntp386
Rp387
(lp388
F-0.0008013580809347332
aF0.018822306767106056
aF-0.9989929795265198
aF-0.040721744298934937
abababag1
(g2
g3
Ntp389
Rp390
(lp391
g1
(g7
g3
Ntp392
Rp393
(lp394
I634591
ag1
(g11
g3
Ntp395
Rp396
(lp397
I1518555450
aI139922130
abaS'world'
p398
abag1
(g16
g3
Ntp399
Rp400
(lp401
g1
(g20
g3
Ntp402
Rp403
(lp404
F1.1155552864074707
aF0.5324153304100037
aF0.056474171578884125
abag1
(g24
g3
Ntp405
Rp406
(lp407
F0.07327501475811005
aF-0.04732620343565941
aF-0.9930374026298523
aF0.07916876673698425
abababag1
(g2
g3
Ntp408
Rp409
(lp410
g1
(g7
g3
Ntp411
Rp412
(lp413
I634600
ag1
(g11
g3
Ntp414
Rp415
(lp416
I1518555450
aI229726587
abaS'world'
p417
abag1
(g16
g3
Ntp418
Rp419
(lp420
g1
(g20
g3
Ntp421
Rp422
(lp423
F1.0982390642166138
aF0.5341258645057678
aF0.06919316947460175
abag1
(g24
g3
Ntp424
Rp425
(lp426
F-0.03075517900288105
aF0.03837084770202637
aF-0.9904308319091797
aF0.12895187735557556
abababag1
(g2
g3
Ntp427
Rp428
(lp429
g1
(g7
g3
Ntp430
Rp431
(lp432
I634611
ag1
(g11
g3
Ntp433
Rp434
(lp435
I1518555450
aI339934791
abaS'world'
p436
abag1
(g16
g3
Ntp437
Rp438
(lp439
g1
(g20
g3
Ntp440
Rp441
(lp442
F1.0677666664123535
aF0.5367045998573303
aF0.054814986884593964
abag1
(g24
g3
Ntp443
Rp444
(lp445
F0.018955858424305916
aF-0.00139186205342412
aF-0.9647412300109863
aF0.2625129818916321
abababag1
(g2
g3
Ntp446
Rp447
(lp448
g1
(g7
g3
Ntp449
Rp450
(lp451
I634621
ag1
(g11
g3
Ntp452
Rp453
(lp454
I1518555450
aI439856006
abaS'world'
p455
abag1
(g16
g3
Ntp456
Rp457
(lp458
g1
(g20
g3
Ntp459
Rp460
(lp461
F1.0510594844818115
aF0.5492792725563049
aF0.07215076684951782
abag1
(g24
g3
Ntp462
Rp463
(lp464
F-0.008351040072739124
aF-0.07707899808883667
aF-0.9698626399040222
aF0.23098859190940857
abababag1
(g2
g3
Ntp465
Rp466
(lp467
g1
(g7
g3
Ntp468
Rp469
(lp470
I634632
ag1
(g11
g3
Ntp471
Rp472
(lp473
I1518555450
aI543827015
abaS'world'
p474
abag1
(g16
g3
Ntp475
Rp476
(lp477
g1
(g20
g3
Ntp478
Rp479
(lp480
F1.0254929065704346
aF0.5349456667900085
aF0.06295646727085114
abag1
(g24
g3
Ntp481
Rp482
(lp483
F0.01803956739604473
aF0.0186074897646904
aF-0.9906723499298096
aF0.1337786316871643
abababag1
(g2
g3
Ntp484
Rp485
(lp486
g1
(g7
g3
Ntp487
Rp488
(lp489
I634640
ag1
(g11
g3
Ntp490
Rp491
(lp492
I1518555450
aI629955767
abaS'world'
p493
abag1
(g16
g3
Ntp494
Rp495
(lp496
g1
(g20
g3
Ntp497
Rp498
(lp499
F1.0235546827316284
aF0.5295789241790771
aF0.059857819229364395
abag1
(g24
g3
Ntp500
Rp501
(lp502
F-0.009149082005023956
aF0.0608203299343586
aF-0.9854509234428406
aF0.15844197571277618
abababag1
(g2
g3
Ntp503
Rp504
(lp505
g1
(g7
g3
Ntp506
Rp507
(lp508
I634651
ag1
(g11
g3
Ntp509
Rp510
(lp511
I1518555450
aI739899885
abaS'world'
p512
abag1
(g16
g3
Ntp513
Rp514
(lp515
g1
(g20
g3
Ntp516
Rp517
(lp518
F1.006378412246704
aF0.5483797192573547
aF0.06670088320970535
abag1
(g24
g3
Ntp519
Rp520
(lp521
F-0.050373394042253494
aF-0.07771770656108856
aF-0.9921984672546387
aF0.08345462381839752
abababag1
(g2
g3
Ntp522
Rp523
(lp524
g1
(g7
g3
Ntp525
Rp526
(lp527
I634661
ag1
(g11
g3
Ntp528
Rp529
(lp530
I1518555450
aI839891363
abaS'world'
p531
abag1
(g16
g3
Ntp532
Rp533
(lp534
g1
(g20
g3
Ntp535
Rp536
(lp537
F0.9790829420089722
aF0.5534452795982361
aF0.06502378731966019
abag1
(g24
g3
Ntp538
Rp539
(lp540
F0.02012699842453003
aF0.04797074571251869
aF-0.9851924180984497
aF-0.1633698046207428
abababag1
(g2
g3
Ntp541
Rp542
(lp543
g1
(g7
g3
Ntp544
Rp545
(lp546
I634671
ag1
(g11
g3
Ntp547
Rp548
(lp549
I1518555450
aI939870240
abaS'world'
p550
abag1
(g16
g3
Ntp551
Rp552
(lp553
g1
(g20
g3
Ntp554
Rp555
(lp556
F0.9551407694816589
aF0.5572193264961243
aF0.06476213783025742
abag1
(g24
g3
Ntp557
Rp558
(lp559
F-0.004123499616980553
aF-0.03838140517473221
aF-0.9923710823059082
aF-0.11708799749612808
abababag1
(g2
g3
Ntp560
Rp561
(lp562
g1
(g7
g3
Ntp563
Rp564
(lp565
I634680
ag1
(g11
g3
Ntp566
Rp567
(lp568
I1518555451
aI23689197
abaS'world'
p569
abag1
(g16
g3
Ntp570
Rp571
(lp572
g1
(g20
g3
Ntp573
Rp574
(lp575
F0.9253309369087219
aF0.5527101755142212
aF0.06349264830350876
abag1
(g24
g3
Ntp576
Rp577
(lp578
F0.024859298020601273
aF-0.04088165611028671
aF-0.9988510608673096
aF-0.0027112409006804228
abababag1
(g2
g3
Ntp579
Rp580
(lp581
g1
(g7
g3
Ntp582
Rp583
(lp584
I634691
ag1
(g11
g3
Ntp585
Rp586
(lp587
I1518555451
aI139909506
abaS'world'
p588
abag1
(g16
g3
Ntp589
Rp590
(lp591
g1
(g20
g3
Ntp592
Rp593
(lp594
F0.8773373365402222
aF0.5449800491333008
aF0.05931190773844719
abag1
(g24
g3
Ntp595
Rp596
(lp597
F0.0453750416636467
aF0.09126152098178864
aF-0.9947118759155273
aF-0.01268253568559885
abababag1
(g2
g3
Ntp598
Rp599
(lp600
g1
(g7
g3
Ntp601
Rp602
(lp603
I634701
ag1
(g11
g3
Ntp604
Rp605
(lp606
I1518555451
aI239925799
abaS'world'
p607
abag1
(g16
g3
Ntp608
Rp609
(lp610
g1
(g20
g3
Ntp611
Rp612
(lp613
F0.849886953830719
aF0.550529956817627
aF0.06400991231203079
abag1
(g24
g3
Ntp614
Rp615
(lp616
F0.036247801035642624
aF0.06460133194923401
aF-0.990028977394104
aF-0.11981454491615295
abababag1
(g2
g3
Ntp617
Rp618
(lp619
g1
(g7
g3
Ntp620
Rp621
(lp622
I634711
ag1
(g11
g3
Ntp623
Rp624
(lp625
I1518555451
aI339840561
abaS'world'
p626
abag1
(g16
g3
Ntp627
Rp628
(lp629
g1
(g20
g3
Ntp630
Rp631
(lp632
F0.82923823595047
aF0.5476074814796448
aF0.0631348192691803
abag1
(g24
g3
Ntp633
Rp634
(lp635
F0.01382843405008316
aF0.04876309260725975
aF-0.9984270930290222
aF0.023966610431671143
abababag1
(g2
g3
Ntp636
Rp637
(lp638
g1
(g7
g3
Ntp639
Rp640
(lp641
I634721
ag1
(g11
g3
Ntp642
Rp643
(lp644
I1518555451
aI439857016
abaS'world'
p645
abag1
(g16
g3
Ntp646
Rp647
(lp648
g1
(g20
g3
Ntp649
Rp650
(lp651
F0.8156355619430542
aF0.5445219874382019
aF0.06030653044581413
abag1
(g24
g3
Ntp652
Rp653
(lp654
F0.008454930037260056
aF0.010041577741503716
aF-0.9981243014335632
aF0.0597974956035614
abababag1
(g2
g3
Ntp655
Rp656
(lp657
g1
(g7
g3
Ntp658
Rp659
(lp660
I634731
ag1
(g11
g3
Ntp661
Rp662
(lp663
I1518555451
aI539972951
abaS'world'
p664
abag1
(g16
g3
Ntp665
Rp666
(lp667
g1
(g20
g3
Ntp668
Rp669
(lp670
F0.790107011795044
aF0.5313575863838196
aF0.06540510803461075
abag1
(g24
g3
Ntp671
Rp672
(lp673
F-0.09034285694360733
aF0.07074201852083206
aF-0.9922249913215637
aF0.04820182919502258
abababag1
(g2
g3
Ntp674
Rp675
(lp676
g1
(g7
g3
Ntp677
Rp678
(lp679
I634740
ag1
(g11
g3
Ntp680
Rp681
(lp682
I1518555451
aI629846096
abaS'world'
p683
abag1
(g16
g3
Ntp684
Rp685
(lp686
g1
(g20
g3
Ntp687
Rp688
(lp689
F0.7545809149742126
aF0.5314659476280212
aF0.0629090964794159
abag1
(g24
g3
Ntp690
Rp691
(lp692
F0.017148377373814583
aF-0.060162823647260666
aF-0.9942710399627686
aF0.08666928112506866
abababag1
(g2
g3
Ntp693
Rp694
(lp695
g1
(g7
g3
Ntp696
Rp697
(lp698
I634751
ag1
(g11
g3
Ntp699
Rp700
(lp701
I1518555451
aI739953429
abaS'world'
p702
abag1
(g16
g3
Ntp703
Rp704
(lp705
g1
(g20
g3
Ntp706
Rp707
(lp708
F0.7143585681915283
aF0.5276302099227905
aF0.05636456236243248
abag1
(g24
g3
Ntp709
Rp710
(lp711
F0.03496504947543144
aF0.025350581854581833
aF-0.992890477180481
aF-0.11092093586921692
abababag1
(g2
g3
Ntp712
Rp713
(lp714
g1
(g7
g3
Ntp715
Rp716
(lp717
I634760
ag1
(g11
g3
Ntp718
Rp719
(lp720
I1518555451
aI829797279
abaS'world'
p721
abag1
(g16
g3
Ntp722
Rp723
(lp724
g1
(g20
g3
Ntp725
Rp726
(lp727
F0.7075947523117065
aF0.5221618413925171
aF0.07486911863088608
abag1
(g24
g3
Ntp728
Rp729
(lp730
F-0.09173808246850967
aF0.032856132835149765
aF-0.9922172427177429
aF-0.07752196490764618
abababag1
(g2
g3
Ntp731
Rp732
(lp733
g1
(g7
g3
Ntp734
Rp735
(lp736
I634771
ag1
(g11
g3
Ntp737
Rp738
(lp739
I1518555451
aI939950440
abaS'world'
p740
abag1
(g16
g3
Ntp741
Rp742
(lp743
g1
(g20
g3
Ntp744
Rp745
(lp746
F0.6924057602882385
aF0.5280638933181763
aF0.06369251012802124
abag1
(g24
g3
Ntp747
Rp748
(lp749
F-0.014430457726120949
aF-0.07242833077907562
aF-0.9948973059654236
aF-0.06874141842126846
abababag1
(g2
g3
Ntp750
Rp751
(lp752
g1
(g7
g3
Ntp753
Rp754
(lp755
I634781
ag1
(g11
g3
Ntp756
Rp757
(lp758
I1518555452
aI39916901
abaS'world'
p759
abag1
(g16
g3
Ntp760
Rp761
(lp762
g1
(g20
g3
Ntp763
Rp764
(lp765
F0.6548414826393127
aF0.5145253539085388
aF0.06701767444610596
abag1
(g24
g3
Ntp766
Rp767
(lp768
F-0.03800187632441521
aF0.09581077098846436
aF-0.989509642124176
aF-0.10122698545455933
abababag1
(g2
g3
Ntp769
Rp770
(lp771
g1
(g7
g3
Ntp772
Rp773
(lp774
I634790
ag1
(g11
g3
Ntp775
Rp776
(lp777
I1518555452
aI129849919
abaS'world'
p778
abag1
(g16
g3
Ntp779
Rp780
(lp781
g1
(g20
g3
Ntp782
Rp783
(lp784
F0.6177517175674438
aF0.5152230262756348
aF0.06572224199771881
abag1
(g24
g3
Ntp785
Rp786
(lp787
F-0.004431899171322584
aF0.020466836169362068
aF-0.9996592998504639
aF0.015579317696392536
abababag1
(g2
g3
Ntp788
Rp789
(lp790
g1
(g7
g3
Ntp791
Rp792
(lp793
I634801
ag1
(g11
g3
Ntp794
Rp795
(lp796
I1518555452
aI239822649
abaS'world'
p797
abag1
(g16
g3
Ntp798
Rp799
(lp800
g1
(g20
g3
Ntp801
Rp802
(lp803
F0.5737201571464539
aF0.518153190612793
aF0.06383954733610153
abag1
(g24
g3
Ntp804
Rp805
(lp806
F0.01270980667322874
aF0.10081050544977188
aF-0.9948222041130066
aF0.0021500366274267435
abababag1
(g2
g3
Ntp807
Rp808
(lp809
g1
(g7
g3
Ntp810
Rp811
(lp812
I634811
ag1
(g11
g3
Ntp813
Rp814
(lp815
I1518555452
aI339939297
abaS'world'
p816
abag1
(g16
g3
Ntp817
Rp818
(lp819
g1
(g20
g3
Ntp820
Rp821
(lp822
F0.546159029006958
aF0.5026666522026062
aF0.05776586756110191
abag1
(g24
g3
Ntp823
Rp824
(lp825
F0.04407394677400589
aF0.05541615188121796
aF-0.9847697019577026
aF0.15879294276237488
abababag1
(g2
g3
Ntp826
Rp827
(lp828
g1
(g7
g3
Ntp829
Rp830
(lp831
I634821
ag1
(g11
g3
Ntp832
Rp833
(lp834
I1518555452
aI440029655
abaS'world'
p835
abag1
(g16
g3
Ntp836
Rp837
(lp838
g1
(g20
g3
Ntp839
Rp840
(lp841
F0.5213077664375305
aF0.4949877858161926
aF0.06770309805870056
abag1
(g24
g3
Ntp842
Rp843
(lp844
F-0.006460109259933233
aF0.013437669724225998
aF-0.9926835298538208
aF0.11982116103172302
abababag1
(g2
g3
Ntp845
Rp846
(lp847
g1
(g7
g3
Ntp848
Rp849
(lp850
I634831
ag1
(g11
g3
Ntp851
Rp852
(lp853
I1518555452
aI539725027
abaS'world'
p854
abag1
(g16
g3
Ntp855
Rp856
(lp857
g1
(g20
g3
Ntp858
Rp859
(lp860
F0.4913290739059448
aF0.4841279983520508
aF0.060519952327013016
abag1
(g24
g3
Ntp861
Rp862
(lp863
F0.07931817322969437
aF-0.011755251325666904
aF-0.9695825576782227
aF0.23125776648521423
abababag1
(g2
g3
Ntp864
Rp865
(lp866
g1
(g7
g3
Ntp867
Rp868
(lp869
I634841
ag1
(g11
g3
Ntp870
Rp871
(lp872
I1518555452
aI640000508
abaS'world'
p873
abag1
(g16
g3
Ntp874
Rp875
(lp876
g1
(g20
g3
Ntp877
Rp878
(lp879
F0.48791682720184326
aF0.47105932235717773
aF0.06657490134239197
abag1
(g24
g3
Ntp880
Rp881
(lp882
F-0.0007763064932078123
aF0.033330246806144714
aF-0.9707922339439392
aF0.23759400844573975
abababag1
(g2
g3
Ntp883
Rp884
(lp885
g1
(g7
g3
Ntp886
Rp887
(lp888
I634851
ag1
(g11
g3
Ntp889
Rp890
(lp891
I1518555452
aI739840516
abaS'world'
p892
abag1
(g16
g3
Ntp893
Rp894
(lp895
g1
(g20
g3
Ntp896
Rp897
(lp898
F0.4749067425727844
aF0.4493699371814728
aF0.056817132979631424
abag1
(g24
g3
Ntp899
Rp900
(lp901
F0.03575873747467995
aF-0.018623799085617065
aF-0.9612637162208557
aF0.2726655602455139
abababag1
(g2
g3
Ntp902
Rp903
(lp904
g1
(g7
g3
Ntp905
Rp906
(lp907
I634860
ag1
(g11
g3
Ntp908
Rp909
(lp910
I1518555452
aI823754323
abaS'world'
p911
abag1
(g16
g3
Ntp912
Rp913
(lp914
g1
(g20
g3
Ntp915
Rp916
(lp917
F0.4615232050418854
aF0.4386120140552521
aF0.06378423422574997
abag1
(g24
g3
Ntp918
Rp919
(lp920
F0.015320013277232647
aF-0.021444043144583702
aF-0.9353936910629272
aF0.3526247441768646
abababag1
(g2
g3
Ntp921
Rp922
(lp923
g1
(g7
g3
Ntp924
Rp925
(lp926
I634871
ag1
(g11
g3
Ntp927
Rp928
(lp929
I1518555452
aI939861228
abaS'world'
p930
abag1
(g16
g3
Ntp931
Rp932
(lp933
g1
(g20
g3
Ntp934
Rp935
(lp936
F0.4310835301876068
aF0.4323207437992096
aF0.05737939104437828
abag1
(g24
g3
Ntp937
Rp938
(lp939
F0.015033410862088203
aF-0.0210210382938385
aF-0.9845840930938721
aF0.17299242317676544
abababag1
(g2
g3
Ntp940
Rp941
(lp942
g1
(g7
g3
Ntp943
Rp944
(lp945
I634881
ag1
(g11
g3
Ntp946
Rp947
(lp948
I1518555453
aI39803729
abaS'world'
p949
abag1
(g16
g3
Ntp950
Rp951
(lp952
g1
(g20
g3
Ntp953
Rp954
(lp955
F0.4013597369194031
aF0.4123327434062958
aF0.06802526861429214
abag1
(g24
g3
Ntp956
Rp957
(lp958
F-0.0023237797431647778
aF-0.03295595571398735
aF-0.9658583998680115
aF0.2569553554058075
abababa.