(lp0
ccopy_reg
_reconstructor
p1
(cnn_dynamics_roach.msg._velroach_msg
velroach_msg
p2
c__builtin__
object
p3
Ntp4
Rp5
(lp6
g1
(crospy.rostime
Time
p7
g3
Ntp8
Rp9
(lp10
I1519098168
aI935266971
abaI0
aI0
aI1558180
aI1779628
aI-1773
aI-2897
aI-1028
aI66
aI-30
aI926
abag1
(g2
g3
Ntp11
Rp12
(lp13
g1
(g7
g3
Ntp14
Rp15
(lp16
I1519098168
aI992659091
abaF585.2229660927338
aF175.0971159706276
aI1560320
aI1782808
aI24
aI155
aI-152
aI-23
aI-4
aI931
abag1
(g2
g3
Ntp17
Rp18
(lp19
g1
(g7
g3
Ntp20
Rp21
(lp22
I1519098169
aI70632934
abaF512.3112506775893
aF207.0752564628842
aI1559968
aI1782736
aI9
aI-220
aI-39
aI-4
aI-20
aI931
abag1
(g2
g3
Ntp23
Rp24
(lp25
g1
(g7
g3
Ntp26
Rp27
(lp28
I1519098169
aI167275905
abaF510.8863746954463
aF140.43202570708047
aI1581684
aI1801068
aI477
aI3223
aI-1913
aI291
aI-38
aI881
abag1
(g2
g3
Ntp29
Rp30
(lp31
g1
(g7
g3
Ntp32
Rp33
(lp34
I1519098169
aI270169973
abaF507.73780637022475
aF169.48801500869996
aI1628876
aI1811612
aI5024
aI-474
aI358
aI62
aI-38
aI898
abag1
(g2
g3
Ntp35
Rp36
(lp37
g1
(g7
g3
Ntp38
Rp39
(lp40
I1519098169
aI363764047
abaF543.7656341525345
aF227.90779089967083
aI1663240
aI1824636
aI1063
aI-2073
aI-2043
aI173
aI-44
aI890
abag1
(g2
g3
Ntp41
Rp42
(lp43
g1
(g7
g3
Ntp44
Rp45
(lp46
I1519098169
aI470756053
abaF545.2002339653437
aF179.53340900082645
aI1698964
aI1845408
aI-858
aI5650
aI1152
aI265
aI-20
aI867
abag1
(g2
g3
Ntp47
Rp48
(lp49
g1
(g7
g3
Ntp50
Rp51
(lp52
I1519098169
aI569027900
abaF551.3450687749714
aF145.9373245047169
aI1753628
aI1860064
aI565
aI-811
aI-5188
aI85
aI-42
aI915
abag1
(g2
g3
Ntp53
Rp54
(lp55
g1
(g7
g3
Ntp56
Rp57
(lp58
I1519098169
aI673418998
abaF497.81156426096567
aF141.70377639726323
aI1808648
aI1873000
aI-689
aI-644
aI-3062
aI75
aI-31
aI926
abag1
(g2
g3
Ntp59
Rp60
(lp61
g1
(g7
g3
Ntp62
Rp63
(lp64
I1519098169
aI766016006
abaF161.60701620810173
aF393.83310782945506
aI1834016
aI1882936
aI842
aI896
aI1398
aI245
aI-30
aI857
abag1
(g2
g3
Ntp65
Rp66
(lp67
g1
(g7
g3
Ntp68
Rp69
(lp70
I1519098169
aI870717048
abaF503.47481779682744
aF183.6487421726037
aI1848284
aI1900788
aI-69
aI-1866
aI8
aI47
aI-353
aI898
abag1
(g2
g3
Ntp71
Rp72
(lp73
g1
(g7
g3
Ntp74
Rp75
(lp76
I1519098169
aI966811895
abaF347.3353715649108
aF428.4173609826795
aI1895120
aI1917392
aI2151
aI0
aI1780
aI-15
aI-38
aI878
abag1
(g2
g3
Ntp77
Rp78
(lp79
g1
(g7
g3
Ntp80
Rp81
(lp82
I1519098170
aI69420099
abaF241.95834519206323
aF211.51012519309097
aI1929240
aI1953156
aI-3177
aI-4759
aI-4454
aI53
aI-348
aI882
abag1
(g2
g3
Ntp83
Rp84
(lp85
g1
(g7
g3
Ntp86
Rp87
(lp88
I1519098170
aI173245906
abaF574.7203194186893
aF188.93671715700324
aI1953652
aI1972536
aI-3783
aI-643
aI1792
aI-2
aI-59
aI906
abag1
(g2
g3
Ntp89
Rp90
(lp91
g1
(g7
g3
Ntp92
Rp93
(lp94
I1519098170
aI270874023
abaF321.16540123747717
aF134.88964881431593
aI1977920
aI1990164
aI1820
aI3520
aI-2344
aI254
aI-30
aI881
abag1
(g2
g3
Ntp95
Rp96
(lp97
g1
(g7
g3
Ntp98
Rp99
(lp100
I1519098170
aI366447925
abaF525.7114560129254
aF404.87788660241165
aI2011876
aI2001772
aI-4058
aI-1969
aI-4088
aI48
aI-42
aI922
abag1
(g2
g3
Ntp101
Rp102
(lp103
g1
(g7
g3
Ntp104
Rp105
(lp106
I1519098170
aI469360113
abaF214.8895801767212
aF585.0481801653168
aI2065356
aI2040900
aI2166
aI-3511
aI1705
aI80
aI-99
aI926
abag1
(g2
g3
Ntp107
Rp108
(lp109
g1
(g7
g3
Ntp110
Rp111
(lp112
I1519098170
aI573049068
abaF535.809476648131
aF230.99122103498425
aI2085764
aI2083808
aI-3893
aI-3304
aI284
aI-13
aI-346
aI860
abag1
(g2
g3
Ntp113
Rp114
(lp115
g1
(g7
g3
Ntp116
Rp117
(lp118
I1519098170
aI669579982
abaF415.31743986181
aF304.2821803234497
aI2141344
aI2106604
aI-2483
aI108
aI279
aI74
aI-33
aI922
abag1
(g2
g3
Ntp119
Rp120
(lp121
g1
(g7
g3
Ntp122
Rp123
(lp124
I1519098170
aI774178981
abaF343.63647363662966
aF309.80496725986944
aI2172568
aI2135012
aI-561
aI724
aI-1601
aI302
aI-74
aI904
abag1
(g2
g3
Ntp125
Rp126
(lp127
g1
(g7
g3
Ntp128
Rp129
(lp130
I1519098170
aI866782903
abaF467.4342091864752
aF424.3051020978828
aI2206580
aI2150764
aI160
aI-2166
aI369
aI34
aI-360
aI881
abag1
(g2
g3
Ntp131
Rp132
(lp133
g1
(g7
g3
Ntp134
Rp135
(lp136
I1519098170
aI974756956
abaF553.0104466766938
aF270.8914883427706
aI2233156
aI2192536
aI597
aI3735
aI170
aI266
aI-90
aI884
abag1
(g2
g3
Ntp137
Rp138
(lp139
g1
(g7
g3
Ntp140
Rp141
(lp142
I1519098171
aI69848060
abaF211.32887919391527
aF292.5890678853216
aI2288108
aI2210628
aI5311
aI-1155
aI889
aI13
aI-327
aI859
abag1
(g2
g3
Ntp143
Rp144
(lp145
g1
(g7
g3
Ntp146
Rp147
(lp148
I1519098171
aI165455102
abaF164.23353375848274
aF499.154832418901
aI2306072
aI2240368
aI-710
aI-134
aI-1291
aI36
aI-69
aI909
abag1
(g2
g3
Ntp149
Rp150
(lp151
g1
(g7
g3
Ntp152
Rp153
(lp154
I1519098171
aI268243074
abaF414.98565648621457
aF393.8677293488714
aI2322356
aI2276560
aI2486
aI-1147
aI-601
aI0
aI-370
aI875
abag1
(g2
g3
Ntp155
Rp156
(lp157
g1
(g7
g3
Ntp158
Rp159
(lp160
I1519098171
aI372320890
abaF319.7000852066092
aF266.42765140187555
aI2356012
aI2283340
aI-1546
aI797
aI2120
aI226
aI-315
aI837
abag1
(g2
g3
Ntp161
Rp162
(lp163
g1
(g7
g3
Ntp164
Rp165
(lp166
I1519098171
aI468808889
abaF384.136635540936
aF445.82222204541404
aI2388320
aI2309732
aI-54
aI5349
aI442
aI75
aI-55
aI920
abag1
(g2
g3
Ntp167
Rp168
(lp169
g1
(g7
g3
Ntp170
Rp171
(lp172
I1519098171
aI573447942
abaF413.57521674684017
aF138.7276037507054
aI2420968
aI2343836
aI3865
aI-358
aI-246
aI253
aI-316
aI846
abag1
(g2
g3
Ntp173
Rp174
(lp175
g1
(g7
g3
Ntp176
Rp177
(lp178
I1519098171
aI666213035
abaF472.0905903893216
aF142.7147295263347
aI2464472
aI2359084
aI-2515
aI-2761
aI-54
aI59
aI-29
aI924
abag1
(g2
g3
Ntp179
Rp180
(lp181
g1
(g7
g3
Ntp182
Rp183
(lp184
I1519098171
aI772058963
abaF549.9258627138626
aF549.2676440575054
aI2493232
aI2373876
aI1456
aI2981
aI-1886
aI280
aI-24
aI882
abag1
(g2
g3
Ntp185
Rp186
(lp187
g1
(g7
g3
Ntp188
Rp189
(lp190
I1519098171
aI869730949
abaF391.5821630266141
aF570.9457809045568
aI2548984
aI2409596
aI1274
aI-3061
aI771
aI-47
aI-340
aI861
abag1
(g2
g3
Ntp191
Rp192
(lp193
g1
(g7
g3
Ntp194
Rp195
(lp196
I1519098171
aI973247051
abaF351.1842134931935
aF375.5489396106203
aI2579360
aI2450056
aI3217
aI2265
aI-496
aI146
aI-375
aI897
abag1
(g2
g3
Ntp197
Rp198
(lp199
g1
(g7
g3
Ntp200
Rp201
(lp202
I1519098172
aI66039085
abaF412.5464607407199
aF574.0805562179544
aI2613788
aI2475708
aI1841
aI-1984
aI777
aI-229
aI-349
aI852
abag1
(g2
g3
Ntp203
Rp204
(lp205
g1
(g7
g3
Ntp206
Rp207
(lp208
I1519098172
aI171658039
abaF337.17305193275786
aF523.8566554401157
aI2657380
aI2535344
aI1909
aI3091
aI2509
aI47
aI-116
aI923
abag1
(g2
g3
Ntp209
Rp210
(lp211
g1
(g7
g3
Ntp212
Rp213
(lp214
I1519098172
aI267945051
abaF368.43273688888326
aF258.5730161222266
aI2688216
aI2587120
aI1165
aI497
aI899
aI-119
aI-173
aI893
abag1
(g2
g3
Ntp215
Rp216
(lp217
g1
(g7
g3
Ntp218
Rp219
(lp220
I1519098172
aI372589111
abaF260.77932765133613
aF231.1075067050653
aI2727032
aI2610464
aI2042
aI-6006
aI-811
aI17
aI-1
aI893
abag1
(g2
g3
Ntp221
Rp222
(lp223
g1
(g7
g3
Ntp224
Rp225
(lp226
I1519098172
aI466727018
abaF540.2908299866046
aF139.61572014815175
aI2747724
aI2635336
aI1921
aI848
aI83
aI283
aI-39
aI879
abag1
(g2
g3
Ntp227
Rp228
(lp229
g1
(g7
g3
Ntp230
Rp231
(lp232
I1519098172
aI572570085
abaF456.68571209456013
aF223.51166902538188
aI2804112
aI2650532
aI818
aI-1722
aI-2931
aI100
aI-55
aI922
abag1
(g2
g3
Ntp233
Rp234
(lp235
g1
(g7
g3
Ntp236
Rp237
(lp238
I1519098172
aI668103933
abaF437.710692034009
aF433.5242050214794
aI2852328
aI2671156
aI852
aI-2642
aI-47
aI80
aI-20
aI899
abag1
(g2
g3
Ntp239
Rp240
(lp241
g1
(g7
g3
Ntp242
Rp243
(lp244
I1519098172
aI772638082
abaF407.2930109277827
aF224.83414732405612
aI2881040
aI2714632
aI-524
aI2647
aI-1315
aI263
aI-103
aI877
abag1
(g2
g3
Ntp245
Rp246
(lp247
g1
(g7
g3
Ntp248
Rp249
(lp250
I1519098172
aI865298986
abaF478.1838198665034
aF339.46410335090343
aI2924948
aI2734152
aI533
aI-1991
aI-507
aI36
aI-25
aI885
abag1
(g2
g3
Ntp251
Rp252
(lp253
g1
(g7
g3
Ntp254
Rp255
(lp256
I1519098172
aI971892118
abaF490.7124867360292
aF227.1632062444644
aI2962240
aI2767620
aI-433
aI-544
aI364
aI293
aI-134
aI902
abag1
(g2
g3
Ntp257
Rp258
(lp259
g1
(g7
g3
Ntp260
Rp261
(lp262
I1519098173
aI68516969
abaF146.56625867372483
aF536.0514649534152
aI3006328
aI2792648
aI1252
aI-680
aI-783
aI272
aI-41
aI878
abag1
(g2
g3
Ntp263
Rp264
(lp265
g1
(g7
g3
Ntp266
Rp267
(lp268
I1519098173
aI172374963
abaF496.6857478798386
aF582.4254523789591
aI3023480
aI2839760
aI189
aI879
aI-1157
aI6
aI-223
aI922
abag1
(g2
g3
Ntp269
Rp270
(lp271
g1
(g7
g3
Ntp272
Rp273
(lp274
I1519098173
aI264568090
abaF460.5569488473631
aF160.76166251942945
aI3071600
aI2873160
aI3688
aI-2092
aI3041
aI209
aI-353
aI855
abag1
(g2
g3
Ntp275
Rp276
(lp277
g1
(g7
g3
Ntp278
Rp279
(lp280
I1519098173
aI371031999
abaF305.5603202415577
aF166.162656104347
aI3120264
aI2892848
aI-2634
aI-1657
aI-970
aI75
aI-19
aI922
abag1
(g2
g3
Ntp281
Rp282
(lp283
g1
(g7
g3
Ntp284
Rp285
(lp286
I1519098173
aI467519998
abaF342.3645831837083
aF538.1667164225496
aI3147232
aI2910484
aI2893
aI2453
aI1432
aI0
aI-77
aI894
abag1
(g2
g3
Ntp287
Rp288
(lp289
g1
(g7
g3
Ntp290
Rp291
(lp292
I1519098173
aI570719003
abaF157.2632339217424
aF496.89700031414094
aI3184904
aI2949944
aI-2485
aI-2591
aI1631
aI32
aI-390
aI894
abag1
(g2
g3
Ntp293
Rp294
(lp295
g1
(g7
g3
Ntp296
Rp297
(lp298
I1519098173
aI664676904
abaF372.7562617778183
aF470.13874403076187
aI3202052
aI2999912
aI5656
aI-47
aI-1437
aI5
aI-86
aI908
abag1
(g2
g3
Ntp299
Rp300
(lp301
g1
(g7
g3
Ntp302
Rp303
(lp304
I1519098173
aI772217988
abaF482.07867549012224
aF140.00889970886837
aI3242460
aI3049344
aI-2084
aI802
aI692
aI42
aI-81
aI919
aba.