(lp0
ccopy_reg
_reconstructor
p1
(cgeometry_msgs.msg._PoseStamped
PoseStamped
p2
c__builtin__
object
p3
Ntp4
Rp5
(lp6
g1
(cstd_msgs.msg._Header
Header
p7
g3
Ntp8
Rp9
(lp10
I17100
ag1
(cgenpy.rostime
Time
p11
g3
Ntp12
Rp13
(lp14
I1519077998
aI124072904
abaS'world'
p15
abag1
(cgeometry_msgs.msg._Pose
Pose
p16
g3
Ntp17
Rp18
(lp19
g1
(cgeometry_msgs.msg._Point
Point
p20
g3
Ntp21
Rp22
(lp23
F0.5357269644737244
aF0.2526000142097473
aF0.06415905058383942
abag1
(cgeometry_msgs.msg._Quaternion
Quaternion
p24
g3
Ntp25
Rp26
(lp27
F-0.018886622041463852
aF-0.051931384950876236
aF0.9933072924613953
aF0.1014251634478569
abababag1
(g2
g3
Ntp28
Rp29
(lp30
g1
(g7
g3
Ntp31
Rp32
(lp33
I17106
ag1
(g11
g3
Ntp34
Rp35
(lp36
I1519077998
aI183985108
abaS'world'
p37
abag1
(g16
g3
Ntp38
Rp39
(lp40
g1
(g20
g3
Ntp41
Rp42
(lp43
F0.5357072353363037
aF0.2529183626174927
aF0.06396479904651642
abag1
(g24
g3
Ntp44
Rp45
(lp46
F-0.019226258620619774
aF-0.04947029426693916
aF0.9934476613998413
aF0.10121740400791168
abababag1
(g2
g3
Ntp47
Rp48
(lp49
g1
(g7
g3
Ntp50
Rp51
(lp52
I17114
ag1
(g11
g3
Ntp53
Rp54
(lp55
I1519077998
aI264067645
abaS'world'
p56
abag1
(g16
g3
Ntp57
Rp58
(lp59
g1
(g20
g3
Ntp60
Rp61
(lp62
F0.5357970595359802
aF0.2525772452354431
aF0.0645175650715828
abag1
(g24
g3
Ntp63
Rp64
(lp65
F-0.016700467094779015
aF-0.052383746951818466
aF0.9931491017341614
aF0.10311217606067657
abababag1
(g2
g3
Ntp66
Rp67
(lp68
g1
(g7
g3
Ntp69
Rp70
(lp71
I17123
ag1
(g11
g3
Ntp72
Rp73
(lp74
I1519077998
aI353849649
abaS'world'
p75
abag1
(g16
g3
Ntp76
Rp77
(lp78
g1
(g20
g3
Ntp79
Rp80
(lp81
F0.5200796127319336
aF0.25125816464424133
aF0.07793652266263962
abag1
(g24
g3
Ntp82
Rp83
(lp84
F0.0485820546746254
aF-0.05141542851924896
aF0.9962890148162842
aF0.04903722181916237
abababag1
(g2
g3
Ntp85
Rp86
(lp87
g1
(g7
g3
Ntp88
Rp89
(lp90
I17134
ag1
(g11
g3
Ntp91
Rp92
(lp93
I1519077998
aI464200204
abaS'world'
p94
abag1
(g16
g3
Ntp95
Rp96
(lp97
g1
(g20
g3
Ntp98
Rp99
(lp100
F0.46942007541656494
aF0.267516553401947
aF0.06694886833429337
abag1
(g24
g3
Ntp101
Rp102
(lp103
F-0.04145526885986328
aF0.02535385638475418
aF0.990375816822052
aF0.12959331274032593
abababag1
(g2
g3
Ntp104
Rp105
(lp106
g1
(g7
g3
Ntp107
Rp108
(lp109
I17143
ag1
(g11
g3
Ntp110
Rp111
(lp112
I1519077998
aI553870353
abaS'world'
p113
abag1
(g16
g3
Ntp114
Rp115
(lp116
g1
(g20
g3
Ntp117
Rp118
(lp119
F0.44967901706695557
aF0.27768373489379883
aF0.07435578107833862
abag1
(g24
g3
Ntp120
Rp121
(lp122
F0.031054263934493065
aF-0.04418661445379257
aF0.9877724051475525
aF0.14624986052513123
abababag1
(g2
g3
Ntp123
Rp124
(lp125
g1
(g7
g3
Ntp126
Rp127
(lp128
I17154
ag1
(g11
g3
Ntp129
Rp130
(lp131
I1519077998
aI664030931
abaS'world'
p132
abag1
(g16
g3
Ntp133
Rp134
(lp135
g1
(g20
g3
Ntp136
Rp137
(lp138
F0.4267587661743164
aF0.2822510302066803
aF0.06966117769479752
abag1
(g24
g3
Ntp139
Rp140
(lp141
F-0.029140466824173927
aF-0.012668706476688385
aF0.9930522441864014
aF0.11330372095108032
abababag1
(g2
g3
Ntp142
Rp143
(lp144
g1
(g7
g3
Ntp145
Rp146
(lp147
I17164
ag1
(g11
g3
Ntp148
Rp149
(lp150
I1519077998
aI763974941
abaS'world'
p151
abag1
(g16
g3
Ntp152
Rp153
(lp154
g1
(g20
g3
Ntp155
Rp156
(lp157
F0.41833680868148804
aF0.27856430411338806
aF0.0793432742357254
abag1
(g24
g3
Ntp158
Rp159
(lp160
F0.03793133422732353
aF-0.04811569303274155
aF0.9926046133041382
aF0.10479644685983658
abababag1
(g2
g3
Ntp161
Rp162
(lp163
g1
(g7
g3
Ntp164
Rp165
(lp166
I17174
ag1
(g11
g3
Ntp167
Rp168
(lp169
I1519077998
aI863979932
abaS'world'
p170
abag1
(g16
g3
Ntp171
Rp172
(lp173
g1
(g20
g3
Ntp174
Rp175
(lp176
F0.38554656505584717
aF0.28201737999916077
aF0.06398941576480865
abag1
(g24
g3
Ntp177
Rp178
(lp179
F-0.031163780018687248
aF-0.057788822799921036
aF0.9928856492042542
aF0.09933514893054962
abababag1
(g2
g3
Ntp180
Rp181
(lp182
g1
(g7
g3
Ntp183
Rp184
(lp185
I17184
ag1
(g11
g3
Ntp186
Rp187
(lp188
I1519077998
aI964071360
abaS'world'
p189
abag1
(g16
g3
Ntp190
Rp191
(lp192
g1
(g20
g3
Ntp193
Rp194
(lp195
F0.3714072108268738
aF0.2879989445209503
aF0.06293794512748718
abag1
(g24
g3
Ntp196
Rp197
(lp198
F0.0211776215583086
aF-0.02615657076239586
aF0.998740017414093
aF0.03722591698169708
abababag1
(g2
g3
Ntp199
Rp200
(lp201
g1
(g7
g3
Ntp202
Rp203
(lp204
I17194
ag1
(g11
g3
Ntp205
Rp206
(lp207
I1519077999
aI63952689
abaS'world'
p208
abag1
(g16
g3
Ntp209
Rp210
(lp211
g1
(g20
g3
Ntp212
Rp213
(lp214
F0.35584557056427
aF0.288150817155838
aF0.0849003866314888
abag1
(g24
g3
Ntp215
Rp216
(lp217
F0.1230558454990387
aF-0.08374691754579544
aF0.985035240650177
aF0.08688732236623764
abababag1
(g2
g3
Ntp218
Rp219
(lp220
g1
(g7
g3
Ntp221
Rp222
(lp223
I17204
ag1
(g11
g3
Ntp224
Rp225
(lp226
I1519077999
aI163896573
abaS'world'
p227
abag1
(g16
g3
Ntp228
Rp229
(lp230
g1
(g20
g3
Ntp231
Rp232
(lp233
F0.32190370559692383
aF0.293178528547287
aF0.06312833726406097
abag1
(g24
g3
Ntp234
Rp235
(lp236
F-0.040195878595113754
aF-0.07591407746076584
aF0.9952036738395691
aF0.04680868983268738
abababag1
(g2
g3
Ntp237
Rp238
(lp239
g1
(g7
g3
Ntp240
Rp241
(lp242
I17213
ag1
(g11
g3
Ntp243
Rp244
(lp245
I1519077999
aI253881571
abaS'world'
p246
abag1
(g16
g3
Ntp247
Rp248
(lp249
g1
(g20
g3
Ntp250
Rp251
(lp252
F0.3022443652153015
aF0.3009726405143738
aF0.0729498416185379
abag1
(g24
g3
Ntp253
Rp254
(lp255
F0.023174656555056572
aF0.07844123244285583
aF0.9966307282447815
aF-0.006091414950788021
abababag1
(g2
g3
Ntp256
Rp257
(lp258
g1
(g7
g3
Ntp259
Rp260
(lp261
I17224
ag1
(g11
g3
Ntp262
Rp263
(lp264
I1519077999
aI364007097
abaS'world'
p265
abag1
(g16
g3
Ntp266
Rp267
(lp268
g1
(g20
g3
Ntp269
Rp270
(lp271
F0.28803181648254395
aF0.2884037494659424
aF0.07478780299425125
abag1
(g24
g3
Ntp272
Rp273
(lp274
F0.006136590614914894
aF-0.06645813584327698
aF0.9934467673301697
aF-0.09278649836778641
abababag1
(g2
g3
Ntp275
Rp276
(lp277
g1
(g7
g3
Ntp278
Rp279
(lp280
I17234
ag1
(g11
g3
Ntp281
Rp282
(lp283
I1519077999
aI464055725
abaS'world'
p284
abag1
(g16
g3
Ntp285
Rp286
(lp287
g1
(g20
g3
Ntp288
Rp289
(lp290
F0.2631801962852478
aF0.2932468354701996
aF0.062201619148254395
abag1
(g24
g3
Ntp291
Rp292
(lp293
F-0.05941988527774811
aF-0.011662195436656475
aF0.998137354850769
aF0.007419586181640625
abababag1
(g2
g3
Ntp294
Rp295
(lp296
g1
(g7
g3
Ntp297
Rp298
(lp299
I17243
ag1
(g11
g3
Ntp300
Rp301
(lp302
I1519077999
aI553983944
abaS'world'
p303
abag1
(g16
g3
Ntp304
Rp305
(lp306
g1
(g20
g3
Ntp307
Rp308
(lp309
F0.26381510496139526
aF0.28723397850990295
aF0.07660630345344543
abag1
(g24
g3
Ntp310
Rp311
(lp312
F0.10075677931308746
aF-0.12524113059043884
aF0.9859827160835266
aF-0.04473070800304413
abababag1
(g2
g3
Ntp313
Rp314
(lp315
g1
(g7
g3
Ntp316
Rp317
(lp318
I17254
ag1
(g11
g3
Ntp319
Rp320
(lp321
I1519077999
aI664173462
abaS'world'
p322
abag1
(g16
g3
Ntp323
Rp324
(lp325
g1
(g20
g3
Ntp326
Rp327
(lp328
F0.2358403503894806
aF0.2912612557411194
aF0.06739263981580734
abag1
(g24
g3
Ntp329
Rp330
(lp331
F-0.0035453324671834707
aF0.04902028664946556
aF0.9910980463027954
aF-0.12373054027557373
abababag1
(g2
g3
Ntp332
Rp333
(lp334
g1
(g7
g3
Ntp335
Rp336
(lp337
I17264
ag1
(g11
g3
Ntp338
Rp339
(lp340
I1519077999
aI763943339
abaS'world'
p341
abag1
(g16
g3
Ntp342
Rp343
(lp344
g1
(g20
g3
Ntp345
Rp346
(lp347
F0.22129729390144348
aF0.2902500629425049
aF0.07001232355833054
abag1
(g24
g3
Ntp348
Rp349
(lp350
F-0.004325564485043287
aF-0.040796566754579544
aF0.9972729682922363
aF-0.06134813278913498
abababag1
(g2
g3
Ntp351
Rp352
(lp353
g1
(g7
g3
Ntp354
Rp355
(lp356
I17274
ag1
(g11
g3
Ntp357
Rp358
(lp359
I1519077999
aI863956500
abaS'world'
p360
abag1
(g16
g3
Ntp361
Rp362
(lp363
g1
(g20
g3
Ntp364
Rp365
(lp366
F0.21779966354370117
aF0.26866236329078674
aF0.06948526203632355
abag1
(g24
g3
Ntp367
Rp368
(lp369
F0.029963059350848198
aF-0.13922059535980225
aF0.9735583662986755
aF-0.17861725389957428
abababag1
(g2
g3
Ntp370
Rp371
(lp372
g1
(g7
g3
Ntp373
Rp374
(lp375
I17285
ag1
(g11
g3
Ntp376
Rp377
(lp378
I1519077999
aI973874966
abaS'world'
p379
abag1
(g16
g3
Ntp380
Rp381
(lp382
g1
(g20
g3
Ntp383
Rp384
(lp385
F0.18168337643146515
aF0.29080528020858765
aF0.06709438562393188
abag1
(g24
g3
Ntp386
Rp387
(lp388
F0.04321780055761337
aF0.012398549355566502
aF0.9963812232017517
aF-0.07213221490383148
abababag1
(g2
g3
Ntp389
Rp390
(lp391
g1
(g7
g3
Ntp392
Rp393
(lp394
I17293
ag1
(g11
g3
Ntp395
Rp396
(lp397
I1519078000
aI53893649
abaS'world'
p398
abag1
(g16
g3
Ntp399
Rp400
(lp401
g1
(g20
g3
Ntp402
Rp403
(lp404
F0.1550671011209488
aF0.28738051652908325
aF0.07467279583215714
abag1
(g24
g3
Ntp405
Rp406
(lp407
F0.058826614171266556
aF0.03183939680457115
aF0.9904051423072815
aF-0.12092725932598114
abababag1
(g2
g3
Ntp408
Rp409
(lp410
g1
(g7
g3
Ntp411
Rp412
(lp413
I17304
ag1
(g11
g3
Ntp414
Rp415
(lp416
I1519078000
aI163889511
abaS'world'
p417
abag1
(g16
g3
Ntp418
Rp419
(lp420
g1
(g20
g3
Ntp421
Rp422
(lp423
F0.12133311480283737
aF0.27119240164756775
aF0.06811314076185226
abag1
(g24
g3
Ntp424
Rp425
(lp426
F0.040284108370542526
aF-0.16552232205867767
aF0.9602351188659668
aF-0.22119683027267456
abababag1
(g2
g3
Ntp427
Rp428
(lp429
g1
(g7
g3
Ntp430
Rp431
(lp432
I17314
ag1
(g11
g3
Ntp433
Rp434
(lp435
I1519078000
aI263891224
abaS'world'
p436
abag1
(g16
g3
Ntp437
Rp438
(lp439
g1
(g20
g3
Ntp440
Rp441
(lp442
F0.09123104065656662
aF0.2700207829475403
aF0.06793460249900818
abag1
(g24
g3
Ntp443
Rp444
(lp445
F0.059319186955690384
aF-0.022613219916820526
aF0.9673457145690918
aF-0.2453816831111908
abababag1
(g2
g3
Ntp446
Rp447
(lp448
g1
(g7
g3
Ntp449
Rp450
(lp451
I17324
ag1
(g11
g3
Ntp452
Rp453
(lp454
I1519078000
aI363998833
abaS'world'
p455
abag1
(g16
g3
Ntp456
Rp457
(lp458
g1
(g20
g3
Ntp459
Rp460
(lp461
F0.07566004991531372
aF0.26520609855651855
aF0.07372680306434631
abag1
(g24
g3
Ntp462
Rp463
(lp464
F0.05708187818527222
aF-0.05138707533478737
aF0.9756068587303162
aF-0.20565137267112732
abababag1
(g2
g3
Ntp465
Rp466
(lp467
g1
(g7
g3
Ntp468
Rp469
(lp470
I17334
ag1
(g11
g3
Ntp471
Rp472
(lp473
I1519078000
aI463932525
abaS'world'
p474
abag1
(g16
g3
Ntp475
Rp476
(lp477
g1
(g20
g3
Ntp478
Rp479
(lp480
F0.06028353422880173
aF0.26089420914649963
aF0.0714324489235878
abag1
(g24
g3
Ntp481
Rp482
(lp483
F0.07083771377801895
aF-0.002652737544849515
aF0.9817793965339661
aF-0.17630749940872192
abababag1
(g2
g3
Ntp484
Rp485
(lp486
g1
(g7
g3
Ntp487
Rp488
(lp489
I17344
ag1
(g11
g3
Ntp490
Rp491
(lp492
I1519078000
aI563929056
abaS'world'
p493
abag1
(g16
g3
Ntp494
Rp495
(lp496
g1
(g20
g3
Ntp497
Rp498
(lp499
F0.03594968467950821
aF0.2525146007537842
aF0.07561474293470383
abag1
(g24
g3
Ntp500
Rp501
(lp502
F0.045654039829969406
aF-0.04226340353488922
aF0.9740164279937744
aF-0.2177649587392807
abababag1
(g2
g3
Ntp503
Rp504
(lp505
g1
(g7
g3
Ntp506
Rp507
(lp508
I17354
ag1
(g11
g3
Ntp509
Rp510
(lp511
I1519078000
aI664006968
abaS'world'
p512
abag1
(g16
g3
Ntp513
Rp514
(lp515
g1
(g20
g3
Ntp516
Rp517
(lp518
F0.008870678022503853
aF0.24857106804847717
aF0.06355355679988861
abag1
(g24
g3
Ntp519
Rp520
(lp521
F0.07188340276479721
aF-0.061973873525857925
aF0.9944340586662292
aF-0.045750461518764496
abababag1
(g2
g3
Ntp522
Rp523
(lp524
g1
(g7
g3
Ntp525
Rp526
(lp527
I17365
ag1
(g11
g3
Ntp528
Rp529
(lp530
I1519078000
aI773935810
abaS'world'
p531
abag1
(g16
g3
Ntp532
Rp533
(lp534
g1
(g20
g3
Ntp535
Rp536
(lp537
F-0.01468582171946764
aF0.2612619698047638
aF0.08068990707397461
abag1
(g24
g3
Ntp538
Rp539
(lp540
F0.09496907144784927
aF-0.068252794444561
aF0.990369975566864
aF0.07409351319074631
abababag1
(g2
g3
Ntp541
Rp542
(lp543
g1
(g7
g3
Ntp544
Rp545
(lp546
I17375
ag1
(g11
g3
Ntp547
Rp548
(lp549
I1519078000
aI873952379
abaS'world'
p550
abag1
(g16
g3
Ntp551
Rp552
(lp553
g1
(g20
g3
Ntp554
Rp555
(lp556
F-0.04063287377357483
aF0.2769758999347687
aF0.06260557472705841
abag1
(g24
g3
Ntp557
Rp558
(lp559
F-0.02578764222562313
aF-0.04624662920832634
aF0.984223484992981
aF0.16882093250751495
abababag1
(g2
g3
Ntp560
Rp561
(lp562
g1
(g7
g3
Ntp563
Rp564
(lp565
I17384
ag1
(g11
g3
Ntp566
Rp567
(lp568
I1519078000
aI963953904
abaS'world'
p569
abag1
(g16
g3
Ntp570
Rp571
(lp572
g1
(g20
g3
Ntp573
Rp574
(lp575
F-0.061984941363334656
aF0.2816588282585144
aF0.06266389042139053
abag1
(g24
g3
Ntp576
Rp577
(lp578
F-0.024131156504154205
aF-0.027184337377548218
aF0.9927389025688171
aF0.11466585099697113
abababag1
(g2
g3
Ntp579
Rp580
(lp581
g1
(g7
g3
Ntp582
Rp583
(lp584
I17394
ag1
(g11
g3
Ntp585
Rp586
(lp587
I1519078001
aI64008429
abaS'world'
p588
abag1
(g16
g3
Ntp589
Rp590
(lp591
g1
(g20
g3
Ntp592
Rp593
(lp594
F-0.09054825454950333
aF0.292805939912796
aF0.07380465418100357
abag1
(g24
g3
Ntp595
Rp596
(lp597
F0.15535546839237213
aF-0.008760038763284683
aF0.9730045199394226
aF0.17044156789779663
abababag1
(g2
g3
Ntp598
Rp599
(lp600
g1
(g7
g3
Ntp601
Rp602
(lp603
I17404
ag1
(g11
g3
Ntp604
Rp605
(lp606
I1519078001
aI164098827
abaS'world'
p607
abag1
(g16
g3
Ntp608
Rp609
(lp610
g1
(g20
g3
Ntp611
Rp612
(lp613
F-0.1312454342842102
aF0.31571856141090393
aF0.061186857521533966
abag1
(g24
g3
Ntp614
Rp615
(lp616
F-0.04752251133322716
aF0.010155260562896729
aF0.9521373510360718
aF0.30178287625312805
abababag1
(g2
g3
Ntp617
Rp618
(lp619
g1
(g7
g3
Ntp620
Rp621
(lp622
I17414
ag1
(g11
g3
Ntp623
Rp624
(lp625
I1519078001
aI263990626
abaS'world'
p626
abag1
(g16
g3
Ntp627
Rp628
(lp629
g1
(g20
g3
Ntp630
Rp631
(lp632
F-0.15531446039676666
aF0.31931135058403015
aF0.07049080729484558
abag1
(g24
g3
Ntp633
Rp634
(lp635
F0.0038467668928205967
aF-0.03922908753156662
aF0.9686318039894104
aF0.24535426497459412
abababag1
(g2
g3
Ntp636
Rp637
(lp638
g1
(g7
g3
Ntp639
Rp640
(lp641
I17424
ag1
(g11
g3
Ntp642
Rp643
(lp644
I1519078001
aI364024318
abaS'world'
p645
abag1
(g16
g3
Ntp646
Rp647
(lp648
g1
(g20
g3
Ntp649
Rp650
(lp651
F-0.17575407028198242
aF0.33766230940818787
aF0.06967950612306595
abag1
(g24
g3
Ntp652
Rp653
(lp654
F0.022093744948506355
aF0.02646242268383503
aF0.9718295335769653
aF0.2331504225730896
abababag1
(g2
g3
Ntp655
Rp656
(lp657
g1
(g7
g3
Ntp658
Rp659
(lp660
I17434
ag1
(g11
g3
Ntp661
Rp662
(lp663
I1519078001
aI463998442
abaS'world'
p664
abag1
(g16
g3
Ntp665
Rp666
(lp667
g1
(g20
g3
Ntp668
Rp669
(lp670
F-0.21391119062900543
aF0.35050883889198303
aF0.06331386417150497
abag1
(g24
g3
Ntp671
Rp672
(lp673
F0.04414118453860283
aF-0.053705498576164246
aF0.9838985204696655
aF0.16465440392494202
abababag1
(g2
g3
Ntp674
Rp675
(lp676
g1
(g7
g3
Ntp677
Rp678
(lp679
I17444
ag1
(g11
g3
Ntp680
Rp681
(lp682
I1519078001
aI563896719
abaS'world'
p683
abag1
(g16
g3
Ntp684
Rp685
(lp686
g1
(g20
g3
Ntp687
Rp688
(lp689
F-0.23591454327106476
aF0.35452285408973694
aF0.08005069196224213
abag1
(g24
g3
Ntp690
Rp691
(lp692
F0.10595674812793732
aF-0.0211234949529171
aF0.9905924201011658
aF0.0839863047003746
abababag1
(g2
g3
Ntp693
Rp694
(lp695
g1
(g7
g3
Ntp696
Rp697
(lp698
I17453
ag1
(g11
g3
Ntp699
Rp700
(lp701
I1519078001
aI654245598
abaS'world'
p702
abag1
(g16
g3
Ntp703
Rp704
(lp705
g1
(g20
g3
Ntp706
Rp707
(lp708
F-0.25531041622161865
aF0.35926803946495056
aF0.0698695257306099
abag1
(g24
g3
Ntp709
Rp710
(lp711
F0.025898799300193787
aF-0.011937776580452919
aF0.9990907907485962
aF0.031690794974565506
abababag1
(g2
g3
Ntp712
Rp713
(lp714
g1
(g7
g3
Ntp715
Rp716
(lp717
I17464
ag1
(g11
g3
Ntp718
Rp719
(lp720
I1519078001
aI763815426
abaS'world'
p721
abag1
(g16
g3
Ntp722
Rp723
(lp724
g1
(g20
g3
Ntp725
Rp726
(lp727
F-0.29344725608825684
aF0.33956021070480347
aF0.06462866067886353
abag1
(g24
g3
Ntp728
Rp729
(lp730
F0.021599384024739265
aF-0.07244773209095001
aF0.996865451335907
aF-0.02332627773284912
abababag1
(g2
g3
Ntp731
Rp732
(lp733
g1
(g7
g3
Ntp734
Rp735
(lp736
I17473
ag1
(g11
g3
Ntp737
Rp738
(lp739
I1519078001
aI854203634
abaS'world'
p740
abag1
(g16
g3
Ntp741
Rp742
(lp743
g1
(g20
g3
Ntp744
Rp745
(lp746
F-0.31234923005104065
aF0.33226317167282104
aF0.07142572849988937
abag1
(g24
g3
Ntp747
Rp748
(lp749
F0.014632507227361202
aF-0.056226108223199844
aF0.9825909733772278
aF-0.17646373808383942
abababag1
(g2
g3
Ntp750
Rp751
(lp752
g1
(g7
g3
Ntp753
Rp754
(lp755
I17484
ag1
(g11
g3
Ntp756
Rp757
(lp758
I1519078001
aI964007259
abaS'world'
p759
abag1
(g16
g3
Ntp760
Rp761
(lp762
g1
(g20
g3
Ntp763
Rp764
(lp765
F-0.33697086572647095
aF0.3262965977191925
aF0.07053456455469131
abag1
(g24
g3
Ntp766
Rp767
(lp768
F0.03287506848573685
aF-0.04577546939253807
aF0.987467885017395
aF-0.1474144458770752
abababag1
(g2
g3
Ntp769
Rp770
(lp771
g1
(g7
g3
Ntp772
Rp773
(lp774
I17494
ag1
(g11
g3
Ntp775
Rp776
(lp777
I1519078002
aI64208599
abaS'world'
p778
abag1
(g16
g3
Ntp779
Rp780
(lp781
g1
(g20
g3
Ntp782
Rp783
(lp784
F-0.3575893044471741
aF0.31524237990379333
aF0.06203562393784523
abag1
(g24
g3
Ntp785
Rp786
(lp787
F-0.0150311179459095
aF-0.03187524527311325
aF0.9764696359634399
aF-0.21275611221790314
abababag1
(g2
g3
Ntp788
Rp789
(lp790
g1
(g7
g3
Ntp791
Rp792
(lp793
I17504
ag1
(g11
g3
Ntp794
Rp795
(lp796
I1519078002
aI163984095
abaS'world'
p797
abag1
(g16
g3
Ntp798
Rp799
(lp800
g1
(g20
g3
Ntp801
Rp802
(lp803
F-0.3609522581100464
aF0.30259639024734497
aF0.06722798198461533
abag1
(g24
g3
Ntp804
Rp805
(lp806
F0.08943527191877365
aF-0.08776669949293137
aF0.9620816111564636
aF-0.242275670170784
abababag1
(g2
g3
Ntp807
Rp808
(lp809
g1
(g7
g3
Ntp810
Rp811
(lp812
I17513
ag1
(g11
g3
Ntp813
Rp814
(lp815
I1519078002
aI254021227
abaS'world'
p816
abag1
(g16
g3
Ntp817
Rp818
(lp819
g1
(g20
g3
Ntp820
Rp821
(lp822
F-0.37675243616104126
aF0.29275327920913696
aF0.0729176327586174
abag1
(g24
g3
Ntp823
Rp824
(lp825
F0.05134158208966255
aF-0.03664243593811989
aF0.9500818252563477
aF-0.3055584132671356
abababag1
(g2
g3
Ntp826
Rp827
(lp828
g1
(g7
g3
Ntp829
Rp830
(lp831
I17524
ag1
(g11
g3
Ntp832
Rp833
(lp834
I1519078002
aI364078309
abaS'world'
p835
abag1
(g16
g3
Ntp836
Rp837
(lp838
g1
(g20
g3
Ntp839
Rp840
(lp841
F-0.4064645767211914
aF0.2741434872150421
aF0.06532151252031326
abag1
(g24
g3
Ntp842
Rp843
(lp844
F0.014483096078038216
aF-0.05815478786826134
aF0.951744794845581
aF-0.3009822368621826
abababag1
(g2
g3
Ntp845
Rp846
(lp847
g1
(g7
g3
Ntp848
Rp849
(lp850
I17534
ag1
(g11
g3
Ntp851
Rp852
(lp853
I1519078002
aI463953829
abaS'world'
p854
abag1
(g16
g3
Ntp855
Rp856
(lp857
g1
(g20
g3
Ntp858
Rp859
(lp860
F-0.4146045744419098
aF0.2592020630836487
aF0.05970590561628342
abag1
(g24
g3
Ntp861
Rp862
(lp863
F0.01863873191177845
aF0.009928352199494839
aF0.8884502053260803
aF-0.45848706364631653
abababag1
(g2
g3
Ntp864
Rp865
(lp866
g1
(g7
g3
Ntp867
Rp868
(lp869
I17544
ag1
(g11
g3
Ntp870
Rp871
(lp872
I1519078002
aI564035161
abaS'world'
p873
abag1
(g16
g3
Ntp874
Rp875
(lp876
g1
(g20
g3
Ntp877
Rp878
(lp879
F-0.4053499400615692
aF0.24330255389213562
aF0.0649891197681427
abag1
(g24
g3
Ntp880
Rp881
(lp882
F0.08170808106660843
aF-0.08064617961645126
aF0.806509792804718
aF-0.579967200756073
abababag1
(g2
g3
Ntp883
Rp884
(lp885
g1
(g7
g3
Ntp886
Rp887
(lp888
I17553
ag1
(g11
g3
Ntp889
Rp890
(lp891
I1519078002
aI653887501
abaS'world'
p892
abag1
(g16
g3
Ntp893
Rp894
(lp895
g1
(g20
g3
Ntp896
Rp897
(lp898
F-0.42272669076919556
aF0.23763741552829742
aF0.06874092668294907
abag1
(g24
g3
Ntp899
Rp900
(lp901
F0.04097548499703407
aF0.019149571657180786
aF0.8243633508682251
aF-0.5642513036727905
abababag1
(g2
g3
Ntp902
Rp903
(lp904
g1
(g7
g3
Ntp905
Rp906
(lp907
I17564
ag1
(g11
g3
Ntp908
Rp909
(lp910
I1519078002
aI763998976
abaS'world'
p911
abag1
(g16
g3
Ntp912
Rp913
(lp914
g1
(g20
g3
Ntp915
Rp916
(lp917
F-0.4399464428424835
aF0.21770863234996796
aF0.06719639897346497
abag1
(g24
g3
Ntp918
Rp919
(lp920
F0.038766223937273026
aF-0.008286962285637856
aF0.8578260540962219
aF-0.512408971786499
abababag1
(g2
g3
Ntp921
Rp922
(lp923
g1
(g7
g3
Ntp924
Rp925
(lp926
I17574
ag1
(g11
g3
Ntp927
Rp928
(lp929
I1519078002
aI863888589
abaS'world'
p930
abag1
(g16
g3
Ntp931
Rp932
(lp933
g1
(g20
g3
Ntp934
Rp935
(lp936
F-0.43146300315856934
aF0.1869482547044754
aF0.06124267354607582
abag1
(g24
g3
Ntp937
Rp938
(lp939
F0.04084969311952591
aF-0.06212767958641052
aF0.7785058617591858
aF-0.6232177019119263
abababag1
(g2
g3
Ntp940
Rp941
(lp942
g1
(g7
g3
Ntp943
Rp944
(lp945
I17584
ag1
(g11
g3
Ntp946
Rp947
(lp948
I1519078002
aI964017610
abaS'world'
p949
abag1
(g16
g3
Ntp950
Rp951
(lp952
g1
(g20
g3
Ntp953
Rp954
(lp955
F-0.4371076822280884
aF0.17821040749549866
aF0.06299809366464615
abag1
(g24
g3
Ntp956
Rp957
(lp958
F0.006790158338844776
aF0.004592563956975937
aF0.7333328127861023
aF-0.6798204183578491
abababa.