(lp0
ccopy_reg
_reconstructor
p1
(cgeometry_msgs.msg._PoseStamped
PoseStamped
p2
c__builtin__
object
p3
Ntp4
Rp5
(lp6
g1
(cstd_msgs.msg._Header
Header
p7
g3
Ntp8
Rp9
(lp10
I501161
ag1
(cgenpy.rostime
Time
p11
g3
Ntp12
Rp13
(lp14
I1518824401
aI875630253
abaS'world'
p15
abag1
(cgeometry_msgs.msg._Pose
Pose
p16
g3
Ntp17
Rp18
(lp19
g1
(cgeometry_msgs.msg._Point
Point
p20
g3
Ntp21
Rp22
(lp23
F0.6505767703056335
aF-0.22193863987922668
aF0.0975053682923317
abag1
(cgeometry_msgs.msg._Quaternion
Quaternion
p24
g3
Ntp25
Rp26
(lp27
F-0.005997407715767622
aF-0.041523151099681854
aF-0.4618861973285675
aF0.8859463930130005
abababag1
(g2
g3
Ntp28
Rp29
(lp30
g1
(g7
g3
Ntp31
Rp32
(lp33
I501167
ag1
(g11
g3
Ntp34
Rp35
(lp36
I1518824401
aI935920483
abaS'world'
p37
abag1
(g16
g3
Ntp38
Rp39
(lp40
g1
(g20
g3
Ntp41
Rp42
(lp43
F0.650542676448822
aF-0.22206784784793854
aF0.09756438434123993
abag1
(g24
g3
Ntp44
Rp45
(lp46
F-0.004455945920199156
aF-0.041461385786533356
aF-0.4626736640930176
aF0.885547399520874
abababag1
(g2
g3
Ntp47
Rp48
(lp49
g1
(g7
g3
Ntp50
Rp51
(lp52
I501175
ag1
(g11
g3
Ntp53
Rp54
(lp55
I1518824402
aI15874537
abaS'world'
p56
abag1
(g16
g3
Ntp57
Rp58
(lp59
g1
(g20
g3
Ntp60
Rp61
(lp62
F0.651266872882843
aF-0.22218479216098785
aF0.09726991504430771
abag1
(g24
g3
Ntp63
Rp64
(lp65
F-0.009228946641087532
aF-0.040052514523267746
aF-0.46284469962120056
aF0.8854860067367554
abababag1
(g2
g3
Ntp66
Rp67
(lp68
g1
(g7
g3
Ntp69
Rp70
(lp71
I501185
ag1
(g11
g3
Ntp72
Rp73
(lp74
I1518824402
aI116092729
abaS'world'
p75
abag1
(g16
g3
Ntp76
Rp77
(lp78
g1
(g20
g3
Ntp79
Rp80
(lp81
F0.6638816595077515
aF-0.22953879833221436
aF0.09371907263994217
abag1
(g24
g3
Ntp82
Rp83
(lp84
F-0.03071638010442257
aF-0.0007670575869269669
aF-0.43459102511405945
aF0.9001036286354065
abababag1
(g2
g3
Ntp85
Rp86
(lp87
g1
(g7
g3
Ntp88
Rp89
(lp90
I501195
ag1
(g11
g3
Ntp91
Rp92
(lp93
I1518824402
aI216213459
abaS'world'
p94
abag1
(g16
g3
Ntp95
Rp96
(lp97
g1
(g20
g3
Ntp98
Rp99
(lp100
F0.6608384847640991
aF-0.24606500566005707
aF0.10815658420324326
abag1
(g24
g3
Ntp101
Rp102
(lp103
F0.12058884650468826
aF-0.10108519345521927
aF-0.36410629749298096
aF0.9179688692092896
abababag1
(g2
g3
Ntp104
Rp105
(lp106
g1
(g7
g3
Ntp107
Rp108
(lp109
I501205
ag1
(g11
g3
Ntp110
Rp111
(lp112
I1518824402
aI316135902
abaS'world'
p113
abag1
(g16
g3
Ntp114
Rp115
(lp116
g1
(g20
g3
Ntp117
Rp118
(lp119
F0.6723613739013672
aF-0.24752533435821533
aF0.0952676385641098
abag1
(g24
g3
Ntp120
Rp121
(lp122
F-0.05018076300621033
aF-0.05798888951539993
aF-0.23543666303157806
aF0.9688595533370972
abababag1
(g2
g3
Ntp123
Rp124
(lp125
g1
(g7
g3
Ntp126
Rp127
(lp128
I501215
ag1
(g11
g3
Ntp129
Rp130
(lp131
I1518824402
aI415731192
abaS'world'
p132
abag1
(g16
g3
Ntp133
Rp134
(lp135
g1
(g20
g3
Ntp136
Rp137
(lp138
F0.6722120046615601
aF-0.25514617562294006
aF0.10729662328958511
abag1
(g24
g3
Ntp139
Rp140
(lp141
F-0.012801324017345905
aF-0.11843952536582947
aF-0.06601989269256592
aF0.9906814098358154
abababag1
(g2
g3
Ntp142
Rp143
(lp144
g1
(g7
g3
Ntp145
Rp146
(lp147
I501225
ag1
(g11
g3
Ntp148
Rp149
(lp150
I1518824402
aI515834290
abaS'world'
p151
abag1
(g16
g3
Ntp152
Rp153
(lp154
g1
(g20
g3
Ntp155
Rp156
(lp157
F0.6876214146614075
aF-0.26651760935783386
aF0.10011179745197296
abag1
(g24
g3
Ntp158
Rp159
(lp160
F0.042538344860076904
aF-0.07785621285438538
aF0.03451021760702133
aF0.9954586625099182
abababag1
(g2
g3
Ntp161
Rp162
(lp163
g1
(g7
g3
Ntp164
Rp165
(lp166
I501234
ag1
(g11
g3
Ntp167
Rp168
(lp169
I1518824402
aI605746521
abaS'world'
p170
abag1
(g16
g3
Ntp171
Rp172
(lp173
g1
(g20
g3
Ntp174
Rp175
(lp176
F0.7140570282936096
aF-0.2663617730140686
aF0.10216212272644043
abag1
(g24
g3
Ntp177
Rp178
(lp179
F0.11863858997821808
aF-0.054645661264657974
aF0.10139799118041992
aF0.9862338304519653
abababag1
(g2
g3
Ntp180
Rp181
(lp182
g1
(g7
g3
Ntp183
Rp184
(lp185
I501245
ag1
(g11
g3
Ntp186
Rp187
(lp188
I1518824402
aI715612843
abaS'world'
p189
abag1
(g16
g3
Ntp190
Rp191
(lp192
g1
(g20
g3
Ntp193
Rp194
(lp195
F0.7470876574516296
aF-0.2561419606208801
aF0.10240488499403
abag1
(g24
g3
Ntp196
Rp197
(lp198
F-0.0015431055799126625
aF-0.07713332772254944
aF0.19704905152320862
aF0.9773534536361694
abababag1
(g2
g3
Ntp199
Rp200
(lp201
g1
(g7
g3
Ntp202
Rp203
(lp204
I501255
ag1
(g11
g3
Ntp205
Rp206
(lp207
I1518824402
aI815983469
abaS'world'
p208
abag1
(g16
g3
Ntp209
Rp210
(lp211
g1
(g20
g3
Ntp212
Rp213
(lp214
F0.7696795463562012
aF-0.23618771135807037
aF0.09851830452680588
abag1
(g24
g3
Ntp215
Rp216
(lp217
F0.08562437444925308
aF-0.008840719237923622
aF0.33455756306648254
aF0.9384357929229736
abababag1
(g2
g3
Ntp218
Rp219
(lp220
g1
(g7
g3
Ntp221
Rp222
(lp223
I501264
ag1
(g11
g3
Ntp224
Rp225
(lp226
I1518824402
aI906111295
abaS'world'
p227
abag1
(g16
g3
Ntp228
Rp229
(lp230
g1
(g20
g3
Ntp231
Rp232
(lp233
F0.7814459204673767
aF-0.21420836448669434
aF0.09775152802467346
abag1
(g24
g3
Ntp234
Rp235
(lp236
F0.06729725003242493
aF-0.008228790014982224
aF0.3465067744255066
aF0.9355941414833069
abababag1
(g2
g3
Ntp237
Rp238
(lp239
g1
(g7
g3
Ntp240
Rp241
(lp242
I501275
ag1
(g11
g3
Ntp243
Rp244
(lp245
I1518824403
aI15906595
abaS'world'
p246
abag1
(g16
g3
Ntp247
Rp248
(lp249
g1
(g20
g3
Ntp250
Rp251
(lp252
F0.8082879781723022
aF-0.19766518473625183
aF0.0965680256485939
abag1
(g24
g3
Ntp253
Rp254
(lp255
F0.04681335389614105
aF-0.05032674968242645
aF0.30801886320114136
aF0.948894202709198
abababag1
(g2
g3
Ntp256
Rp257
(lp258
g1
(g7
g3
Ntp259
Rp260
(lp261
I501285
ag1
(g11
g3
Ntp262
Rp263
(lp264
I1518824403
aI116257533
abaS'world'
p265
abag1
(g16
g3
Ntp266
Rp267
(lp268
g1
(g20
g3
Ntp269
Rp270
(lp271
F0.8393539190292358
aF-0.1715518832206726
aF0.10252395272254944
abag1
(g24
g3
Ntp272
Rp273
(lp274
F0.040460411459207535
aF-0.04246922954916954
aF0.3963843882083893
aF0.9162089824676514
abababag1
(g2
g3
Ntp275
Rp276
(lp277
g1
(g7
g3
Ntp278
Rp279
(lp280
I501295
ag1
(g11
g3
Ntp281
Rp282
(lp283
I1518824403
aI215813326
abaS'world'
p284
abag1
(g16
g3
Ntp285
Rp286
(lp287
g1
(g20
g3
Ntp288
Rp289
(lp290
F0.8561477065086365
aF-0.1309552937746048
aF0.09744325280189514
abag1
(g24
g3
Ntp291
Rp292
(lp293
F-0.001257732161320746
aF-0.12307246774435043
aF0.38878726959228516
aF0.9130695462226868
abababag1
(g2
g3
Ntp294
Rp295
(lp296
g1
(g7
g3
Ntp297
Rp298
(lp299
I501304
ag1
(g11
g3
Ntp300
Rp301
(lp302
I1518824403
aI306194055
abaS'world'
p303
abag1
(g16
g3
Ntp304
Rp305
(lp306
g1
(g20
g3
Ntp307
Rp308
(lp309
F0.8670340776443481
aF-0.11299046128988266
aF0.10470160096883774
abag1
(g24
g3
Ntp310
Rp311
(lp312
F-0.010335581377148628
aF-0.11544613540172577
aF0.47229281067848206
aF0.8737876415252686
abababag1
(g2
g3
Ntp313
Rp314
(lp315
g1
(g7
g3
Ntp316
Rp317
(lp318
I501315
ag1
(g11
g3
Ntp319
Rp320
(lp321
I1518824403
aI416051337
abaS'world'
p322
abag1
(g16
g3
Ntp323
Rp324
(lp325
g1
(g20
g3
Ntp326
Rp327
(lp328
F0.8674764633178711
aF-0.09650575369596481
aF0.0984124094247818
abag1
(g24
g3
Ntp329
Rp330
(lp331
F-0.016275212168693542
aF-0.08719008415937424
aF0.5604920387268066
aF0.8233964443206787
abababag1
(g2
g3
Ntp332
Rp333
(lp334
g1
(g7
g3
Ntp335
Rp336
(lp337
I501325
ag1
(g11
g3
Ntp338
Rp339
(lp340
I1518824403
aI516491946
abaS'world'
p341
abag1
(g16
g3
Ntp342
Rp343
(lp344
g1
(g20
g3
Ntp345
Rp346
(lp347
F0.889643669128418
aF-0.08311206102371216
aF0.10417336970567703
abag1
(g24
g3
Ntp348
Rp349
(lp350
F0.03854073956608772
aF-0.021628674119710922
aF0.47241631150245667
aF0.8802668452262878
abababag1
(g2
g3
Ntp351
Rp352
(lp353
g1
(g7
g3
Ntp354
Rp355
(lp356
I501335
ag1
(g11
g3
Ntp357
Rp358
(lp359
I1518824403
aI616168470
abaS'world'
p360
abag1
(g16
g3
Ntp361
Rp362
(lp363
g1
(g20
g3
Ntp364
Rp365
(lp366
F0.8992322087287903
aF-0.061120327562093735
aF0.09956438839435577
abag1
(g24
g3
Ntp367
Rp368
(lp369
F0.01052842941135168
aF-0.05209565535187721
aF0.4660331606864929
aF0.8831695318222046
abababag1
(g2
g3
Ntp370
Rp371
(lp372
g1
(g7
g3
Ntp373
Rp374
(lp375
I501344
ag1
(g11
g3
Ntp376
Rp377
(lp378
I1518824403
aI706284909
abaS'world'
p379
abag1
(g16
g3
Ntp380
Rp381
(lp382
g1
(g20
g3
Ntp383
Rp384
(lp385
F0.9117733240127563
aF-0.05403558537364006
aF0.10853563249111176
abag1
(g24
g3
Ntp386
Rp387
(lp388
F0.1589978039264679
aF-0.04682929441332817
aF0.5267648696899414
aF0.8336938619613647
abababag1
(g2
g3
Ntp389
Rp390
(lp391
g1
(g7
g3
Ntp392
Rp393
(lp394
I501355
ag1
(g11
g3
Ntp395
Rp396
(lp397
I1518824403
aI816308453
abaS'world'
p398
abag1
(g16
g3
Ntp399
Rp400
(lp401
g1
(g20
g3
Ntp402
Rp403
(lp404
F0.9235475659370422
aF-0.033124975860118866
aF0.10053474456071854
abag1
(g24
g3
Ntp405
Rp406
(lp407
F0.024951810017228127
aF0.012051021680235863
aF0.5395439863204956
aF0.8415014147758484
abababag1
(g2
g3
Ntp408
Rp409
(lp410
g1
(g7
g3
Ntp411
Rp412
(lp413
I501365
ag1
(g11
g3
Ntp414
Rp415
(lp416
I1518824403
aI915906692
abaS'world'
p417
abag1
(g16
g3
Ntp418
Rp419
(lp420
g1
(g20
g3
Ntp421
Rp422
(lp423
F0.9449421167373657
aF-0.025301141664385796
aF0.10214768350124359
abag1
(g24
g3
Ntp424
Rp425
(lp426
F0.16776664555072784
aF0.11822233349084854
aF0.5555867552757263
aF0.8057302832603455
abababag1
(g2
g3
Ntp427
Rp428
(lp429
g1
(g7
g3
Ntp430
Rp431
(lp432
I501375
ag1
(g11
g3
Ntp433
Rp434
(lp435
I1518824404
aI16290709
abaS'world'
p436
abag1
(g16
g3
Ntp437
Rp438
(lp439
g1
(g20
g3
Ntp440
Rp441
(lp442
F0.9434501528739929
aF-2.779555507004261e-05
aF0.11023643612861633
abag1
(g24
g3
Ntp443
Rp444
(lp445
F0.04632978141307831
aF-0.10768774151802063
aF0.5329300165176392
aF0.837999165058136
abababag1
(g2
g3
Ntp446
Rp447
(lp448
g1
(g7
g3
Ntp449
Rp450
(lp451
I501384
ag1
(g11
g3
Ntp452
Rp453
(lp454
I1518824404
aI105847917
abaS'world'
p455
abag1
(g16
g3
Ntp456
Rp457
(lp458
g1
(g20
g3
Ntp459
Rp460
(lp461
F0.9592950344085693
aF0.039007071405649185
aF0.10453299432992935
abag1
(g24
g3
Ntp462
Rp463
(lp464
F-0.02629425749182701
aF-0.08197241276502609
aF0.4416525363922119
aF0.8930466771125793
abababag1
(g2
g3
Ntp465
Rp466
(lp467
g1
(g7
g3
Ntp468
Rp469
(lp470
I501395
ag1
(g11
g3
Ntp471
Rp472
(lp473
I1518824404
aI216205969
abaS'world'
p474
abag1
(g16
g3
Ntp475
Rp476
(lp477
g1
(g20
g3
Ntp478
Rp479
(lp480
F0.9775798320770264
aF0.07454811036586761
aF0.10462410748004913
abag1
(g24
g3
Ntp481
Rp482
(lp483
F0.09818319231271744
aF0.0019833282567560673
aF0.45932915806770325
aF0.8828209638595581
abababag1
(g2
g3
Ntp484
Rp485
(lp486
g1
(g7
g3
Ntp487
Rp488
(lp489
I501405
ag1
(g11
g3
Ntp490
Rp491
(lp492
I1518824404
aI316381285
abaS'world'
p493
abag1
(g16
g3
Ntp494
Rp495
(lp496
g1
(g20
g3
Ntp497
Rp498
(lp499
F0.997886061668396
aF0.09665442258119583
aF0.09648098796606064
abag1
(g24
g3
Ntp500
Rp501
(lp502
F-0.00945372600108385
aF-0.018123337998986244
aF0.4871542751789093
aF0.8730766773223877
abababag1
(g2
g3
Ntp503
Rp504
(lp505
g1
(g7
g3
Ntp506
Rp507
(lp508
I501414
ag1
(g11
g3
Ntp509
Rp510
(lp511
I1518824404
aI405893534
abaS'world'
p512
abag1
(g16
g3
Ntp513
Rp514
(lp515
g1
(g20
g3
Ntp516
Rp517
(lp518
F1.0316859483718872
aF0.09331706911325455
aF0.1083952933549881
abag1
(g24
g3
Ntp519
Rp520
(lp521
F0.27120137214660645
aF-0.04011981934309006
aF0.5303553342819214
aF0.8022240996360779
abababag1
(g2
g3
Ntp522
Rp523
(lp524
g1
(g7
g3
Ntp525
Rp526
(lp527
I501425
ag1
(g11
g3
Ntp528
Rp529
(lp530
I1518824404
aI516666829
abaS'world'
p531
abag1
(g16
g3
Ntp532
Rp533
(lp534
g1
(g20
g3
Ntp535
Rp536
(lp537
F1.0544815063476562
aF0.11721692979335785
aF0.11086787283420563
abag1
(g24
g3
Ntp538
Rp539
(lp540
F0.11123144626617432
aF-0.0017143484437838197
aF0.44442614912986755
aF0.8888813257217407
abababag1
(g2
g3
Ntp541
Rp542
(lp543
g1
(g7
g3
Ntp544
Rp545
(lp546
I501435
ag1
(g11
g3
Ntp547
Rp548
(lp549
I1518824404
aI616085877
abaS'world'
p550
abag1
(g16
g3
Ntp551
Rp552
(lp553
g1
(g20
g3
Ntp554
Rp555
(lp556
F1.0620027780532837
aF0.14893651008605957
aF0.10449977219104767
abag1
(g24
g3
Ntp557
Rp558
(lp559
F0.02885584533214569
aF0.00012137175508541986
aF0.37431856989860535
aF0.9268511533737183
abababag1
(g2
g3
Ntp560
Rp561
(lp562
g1
(g7
g3
Ntp563
Rp564
(lp565
I501445
ag1
(g11
g3
Ntp566
Rp567
(lp568
I1518824404
aI716046644
abaS'world'
p569
abag1
(g16
g3
Ntp570
Rp571
(lp572
g1
(g20
g3
Ntp573
Rp574
(lp575
F1.0629255771636963
aF0.15076303482055664
aF0.10253690928220749
abag1
(g24
g3
Ntp576
Rp577
(lp578
F0.07002847641706467
aF-0.01881067082285881
aF0.2674563527107239
aF0.9608379006385803
abababag1
(g2
g3
Ntp579
Rp580
(lp581
g1
(g7
g3
Ntp582
Rp583
(lp584
I501455
ag1
(g11
g3
Ntp585
Rp586
(lp587
I1518824404
aI816035055
abaS'world'
p588
abag1
(g16
g3
Ntp589
Rp590
(lp591
g1
(g20
g3
Ntp592
Rp593
(lp594
F1.075011134147644
aF0.16240178048610687
aF0.1001909151673317
abag1
(g24
g3
Ntp595
Rp596
(lp597
F0.040804971009492874
aF-0.05113430321216583
aF0.27243107557296753
aF0.959948718547821
abababag1
(g2
g3
Ntp598
Rp599
(lp600
g1
(g7
g3
Ntp601
Rp602
(lp603
I501464
ag1
(g11
g3
Ntp604
Rp605
(lp606
I1518824404
aI906285849
abaS'world'
p607
abag1
(g16
g3
Ntp608
Rp609
(lp610
g1
(g20
g3
Ntp611
Rp612
(lp613
F1.1057202816009521
aF0.1782180815935135
aF0.1021478995680809
abag1
(g24
g3
Ntp614
Rp615
(lp616
F0.0598641075193882
aF0.0011070686159655452
aF0.29207488894462585
aF0.954519510269165
abababag1
(g2
g3
Ntp617
Rp618
(lp619
g1
(g7
g3
Ntp620
Rp621
(lp622
I501475
ag1
(g11
g3
Ntp623
Rp624
(lp625
I1518824405
aI15720599
abaS'world'
p626
abag1
(g16
g3
Ntp627
Rp628
(lp629
g1
(g20
g3
Ntp630
Rp631
(lp632
F1.1319513320922852
aF0.20064915716648102
aF0.10051112622022629
abag1
(g24
g3
Ntp633
Rp634
(lp635
F0.04788777232170105
aF-0.01658610999584198
aF0.21637187898159027
aF0.9749948382377625
abababag1
(g2
g3
Ntp636
Rp637
(lp638
g1
(g7
g3
Ntp639
Rp640
(lp641
I501485
ag1
(g11
g3
Ntp642
Rp643
(lp644
I1518824405
aI116149223
abaS'world'
p645
abag1
(g16
g3
Ntp646
Rp647
(lp648
g1
(g20
g3
Ntp649
Rp650
(lp651
F1.1553274393081665
aF0.20246103405952454
aF0.0943453460931778
abag1
(g24
g3
Ntp652
Rp653
(lp654
F0.039056435227394104
aF0.005291198380291462
aF0.18298567831516266
aF0.9823252558708191
abababag1
(g2
g3
Ntp655
Rp656
(lp657
g1
(g7
g3
Ntp658
Rp659
(lp660
I501495
ag1
(g11
g3
Ntp661
Rp662
(lp663
I1518824405
aI216131999
abaS'world'
p664
abag1
(g16
g3
Ntp665
Rp666
(lp667
g1
(g20
g3
Ntp668
Rp669
(lp670
F1.1629905700683594
aF0.19541576504707336
aF0.11605438590049744
abag1
(g24
g3
Ntp671
Rp672
(lp673
F0.045398276299238205
aF-0.08762086182832718
aF0.06788132339715958
aF0.9928009510040283
abababag1
(g2
g3
Ntp674
Rp675
(lp676
g1
(g7
g3
Ntp677
Rp678
(lp679
I501504
ag1
(g11
g3
Ntp680
Rp681
(lp682
I1518824405
aI305907350
abaS'world'
p683
abag1
(g16
g3
Ntp684
Rp685
(lp686
g1
(g20
g3
Ntp687
Rp688
(lp689
F1.1806966066360474
aF0.19646695256233215
aF0.09980245679616928
abag1
(g24
g3
Ntp690
Rp691
(lp692
F0.0055414363741874695
aF0.0009078907896764576
aF-0.008223479613661766
aF0.9999504685401917
abababag1
(g2
g3
Ntp693
Rp694
(lp695
g1
(g7
g3
Ntp696
Rp697
(lp698
I501515
ag1
(g11
g3
Ntp699
Rp700
(lp701
I1518824405
aI416399552
abaS'world'
p702
abag1
(g16
g3
Ntp703
Rp704
(lp705
g1
(g20
g3
Ntp706
Rp707
(lp708
F1.1978873014450073
aF0.1931253969669342
aF0.10350855439901352
abag1
(g24
g3
Ntp709
Rp710
(lp711
F0.04195065423846245
aF-0.06603295356035233
aF-0.1505119502544403
aF0.9855080246925354
abababag1
(g2
g3
Ntp712
Rp713
(lp714
g1
(g7
g3
Ntp715
Rp716
(lp717
I501525
ag1
(g11
g3
Ntp718
Rp719
(lp720
I1518824405
aI515964528
abaS'world'
p721
abag1
(g16
g3
Ntp722
Rp723
(lp724
g1
(g20
g3
Ntp725
Rp726
(lp727
F1.2299007177352905
aF0.2023409903049469
aF0.09926623851060867
abag1
(g24
g3
Ntp728
Rp729
(lp730
F-0.02812035195529461
aF-0.04209747910499573
aF-0.11026294529438019
aF0.9926122426986694
abababag1
(g2
g3
Ntp731
Rp732
(lp733
g1
(g7
g3
Ntp734
Rp735
(lp736
I501535
ag1
(g11
g3
Ntp737
Rp738
(lp739
I1518824405
aI615952252
abaS'world'
p740
abag1
(g16
g3
Ntp741
Rp742
(lp743
g1
(g20
g3
Ntp744
Rp745
(lp746
F1.2389075756072998
aF0.18793420493602753
aF0.10512351244688034
abag1
(g24
g3
Ntp747
Rp748
(lp749
F0.08539614826440811
aF-0.15407761931419373
aF-0.15867754817008972
aF0.9714880585670471
abababag1
(g2
g3
Ntp750
Rp751
(lp752
g1
(g7
g3
Ntp753
Rp754
(lp755
I501544
ag1
(g11
g3
Ntp756
Rp757
(lp758
I1518824405
aI706204386
abaS'world'
p759
abag1
(g16
g3
Ntp760
Rp761
(lp762
g1
(g20
g3
Ntp763
Rp764
(lp765
F1.2566975355148315
aF0.18779878318309784
aF0.1074417307972908
abag1
(g24
g3
Ntp766
Rp767
(lp768
F-0.024163493886590004
aF-0.08825203031301498
aF-0.20675261318683624
aF0.9741052985191345
abababag1
(g2
g3
Ntp769
Rp770
(lp771
g1
(g7
g3
Ntp772
Rp773
(lp774
I501555
ag1
(g11
g3
Ntp775
Rp776
(lp777
I1518824405
aI815914654
abaS'world'
p778
abag1
(g16
g3
Ntp779
Rp780
(lp781
g1
(g20
g3
Ntp782
Rp783
(lp784
F1.2780804634094238
aF0.18259431421756744
aF0.10267388075590134
abag1
(g24
g3
Ntp785
Rp786
(lp787
F0.043683893978595734
aF-0.06996527314186096
aF-0.08303271234035492
aF0.9931275248527527
abababag1
(g2
g3
Ntp788
Rp789
(lp790
g1
(g7
g3
Ntp791
Rp792
(lp793
I501565
ag1
(g11
g3
Ntp794
Rp795
(lp796
I1518824405
aI916083455
abaS'world'
p797
abag1
(g16
g3
Ntp798
Rp799
(lp800
g1
(g20
g3
Ntp801
Rp802
(lp803
F1.2963566780090332
aF0.1820531189441681
aF0.0990404561161995
abag1
(g24
g3
Ntp804
Rp805
(lp806
F0.09197092801332474
aF-0.03501935303211212
aF-0.0880868211388588
aF0.9912395477294922
abababag1
(g2
g3
Ntp807
Rp808
(lp809
g1
(g7
g3
Ntp810
Rp811
(lp812
I501575
ag1
(g11
g3
Ntp813
Rp814
(lp815
I1518824406
aI16251317
abaS'world'
p816
abag1
(g16
g3
Ntp817
Rp818
(lp819
g1
(g20
g3
Ntp820
Rp821
(lp822
F1.3123666048049927
aF0.17653371393680573
aF0.10877177864313126
abag1
(g24
g3
Ntp823
Rp824
(lp825
F-0.10825326293706894
aF-0.06212637946009636
aF-0.23296363651752472
aF0.9644425511360168
abababag1
(g2
g3
Ntp826
Rp827
(lp828
g1
(g7
g3
Ntp829
Rp830
(lp831
I501585
ag1
(g11
g3
Ntp832
Rp833
(lp834
I1518824406
aI116224023
abaS'world'
p835
abag1
(g16
g3
Ntp836
Rp837
(lp838
g1
(g20
g3
Ntp839
Rp840
(lp841
F1.3384145498275757
aF0.16624361276626587
aF0.1112760379910469
abag1
(g24
g3
Ntp842
Rp843
(lp844
F0.0517953559756279
aF-0.08008567988872528
aF-0.18366847932338715
aF0.9783504009246826
abababag1
(g2
g3
Ntp845
Rp846
(lp847
g1
(g7
g3
Ntp848
Rp849
(lp850
I501595
ag1
(g11
g3
Ntp851
Rp852
(lp853
I1518824406
aI216096356
abaS'world'
p854
abag1
(g16
g3
Ntp855
Rp856
(lp857
g1
(g20
g3
Ntp858
Rp859
(lp860
F1.3661190271377563
aF0.17078177630901337
aF0.10321932286024094
abag1
(g24
g3
Ntp861
Rp862
(lp863
F-0.0045530544593930244
aF0.004339513368904591
aF-0.04191780835390091
aF0.9991013407707214
abababag1
(g2
g3
Ntp864
Rp865
(lp866
g1
(g7
g3
Ntp867
Rp868
(lp869
I501604
ag1
(g11
g3
Ntp870
Rp871
(lp872
I1518824406
aI306216098
abaS'world'
p873
abag1
(g16
g3
Ntp874
Rp875
(lp876
g1
(g20
g3
Ntp877
Rp878
(lp879
F1.3720829486846924
aF0.19645731151103973
aF0.10616504400968552
abag1
(g24
g3
Ntp880
Rp881
(lp882
F-0.0933506116271019
aF-0.10520420968532562
aF0.09035954624414444
aF0.9859274625778198
abababag1
(g2
g3
Ntp883
Rp884
(lp885
g1
(g7
g3
Ntp886
Rp887
(lp888
I501615
ag1
(g11
g3
Ntp889
Rp890
(lp891
I1518824406
aI416319193
abaS'world'
p892
abag1
(g16
g3
Ntp893
Rp894
(lp895
g1
(g20
g3
Ntp896
Rp897
(lp898
F1.3993924856185913
aF0.19179019331932068
aF0.10859762132167816
abag1
(g24
g3
Ntp899
Rp900
(lp901
F0.06685128808021545
aF-0.08059579133987427
aF0.007004991173744202
aF0.9944778084754944
abababag1
(g2
g3
Ntp902
Rp903
(lp904
g1
(g7
g3
Ntp905
Rp906
(lp907
I501624
ag1
(g11
g3
Ntp908
Rp909
(lp910
I1518824406
aI506354487
abaS'world'
p911
abag1
(g16
g3
Ntp912
Rp913
(lp914
g1
(g20
g3
Ntp915
Rp916
(lp917
F1.4330393075942993
aF0.18071764707565308
aF0.10167047381401062
abag1
(g24
g3
Ntp918
Rp919
(lp920
F0.16329391300678253
aF-0.03138258308172226
aF-0.10025686025619507
aF0.9809683561325073
abababag1
(g2
g3
Ntp921
Rp922
(lp923
g1
(g7
g3
Ntp924
Rp925
(lp926
I501635
ag1
(g11
g3
Ntp927
Rp928
(lp929
I1518824406
aI616363886
abaS'world'
p930
abag1
(g16
g3
Ntp931
Rp932
(lp933
g1
(g20
g3
Ntp934
Rp935
(lp936
F1.4649760723114014
aF0.18361350893974304
aF0.10670766979455948
abag1
(g24
g3
Ntp937
Rp938
(lp939
F-0.03286472335457802
aF-0.045427825301885605
aF-0.15642179548740387
aF0.9860975742340088
abababag1
(g2
g3
Ntp940
Rp941
(lp942
g1
(g7
g3
Ntp943
Rp944
(lp945
I501644
ag1
(g11
g3
Ntp946
Rp947
(lp948
I1518824406
aI706152904
abaS'world'
p949
abag1
(g16
g3
Ntp950
Rp951
(lp952
g1
(g20
g3
Ntp953
Rp954
(lp955
F1.4880998134613037
aF0.1707867681980133
aF0.1035514548420906
abag1
(g24
g3
Ntp956
Rp957
(lp958
F-0.0355253629386425
aF-0.01945466920733452
aF-0.24927638471126556
aF0.9675850868225098
abababa.