(lp0
ccopy_reg
_reconstructor
p1
(cnn_dynamics_roach.msg._velroach_msg
velroach_msg
p2
c__builtin__
object
p3
Ntp4
Rp5
(lp6
g1
(crospy.rostime
Time
p7
g3
Ntp8
Rp9
(lp10
I1519097619
aI99533081
abaI0
aI0
aI-44572
aI39020
aI-43
aI-206
aI-38
aI-16
aI-21
aI911
abag1
(g2
g3
Ntp11
Rp12
(lp13
g1
(g7
g3
Ntp14
Rp15
(lp16
I1519097619
aI131659984
abaF499.6890632024663
aF497.2704921745935
aI-44576
aI39012
aI-8
aI-207
aI-43
aI-21
aI-9
aI911
abag1
(g2
g3
Ntp17
Rp18
(lp19
g1
(g7
g3
Ntp20
Rp21
(lp22
I1519097619
aI234978914
abaF405.8773581126608
aF270.6184285271213
aI-2292
aI57284
aI-654
aI1059
aI3421
aI219
aI-306
aI836
abag1
(g2
g3
Ntp23
Rp24
(lp25
g1
(g7
g3
Ntp26
Rp27
(lp28
I1519097619
aI329317092
abaF458.7213411827998
aF412.03972144328816
aI35004
aI82172
aI-4669
aI-3595
aI-2758
aI50
aI-54
aI896
abag1
(g2
g3
Ntp29
Rp30
(lp31
g1
(g7
g3
Ntp32
Rp33
(lp34
I1519097619
aI434437036
abaF148.76567980233355
aF512.0752227640309
aI73912
aI115276
aI-686
aI-4978
aI-2374
aI18
aI-324
aI844
abag1
(g2
g3
Ntp35
Rp36
(lp37
g1
(g7
g3
Ntp38
Rp39
(lp40
I1519097619
aI530407905
abaF237.56675987220765
aF139.83705103697648
aI87580
aI162668
aI-4476
aI-323
aI3165
aI5
aI-142
aI903
abag1
(g2
g3
Ntp41
Rp42
(lp43
g1
(g7
g3
Ntp44
Rp45
(lp46
I1519097619
aI634005069
abaF436.50843233294006
aF138.20872717412863
aI109460
aI174544
aI1696
aI-1825
aI-645
aI14
aI-40
aI895
abag1
(g2
g3
Ntp47
Rp48
(lp49
g1
(g7
g3
Ntp50
Rp51
(lp52
I1519097619
aI737279891
abaF369.9947689250742
aF415.7198091022366
aI137760
aI184132
aI1172
aI-1296
aI-582
aI283
aI-41
aI859
abag1
(g2
g3
Ntp53
Rp54
(lp55
g1
(g7
g3
Ntp56
Rp57
(lp58
I1519097619
aI837212085
abaF363.77898665726366
aF162.1435404878509
aI173340
aI223724
aI-4661
aI-1357
aI142
aI40
aI-88
aI900
abag1
(g2
g3
Ntp59
Rp60
(lp61
g1
(g7
g3
Ntp62
Rp63
(lp64
I1519097619
aI930614948
abaF140.91445783811596
aF509.09492472154204
aI204604
aI239324
aI1759
aI448
aI-2690
aI35
aI-47
aI887
abag1
(g2
g3
Ntp65
Rp66
(lp67
g1
(g7
g3
Ntp68
Rp69
(lp70
I1519097620
aI34755945
abaF326.56889430434796
aF356.7816288904052
aI218280
aI252720
aI134
aI-4351
aI2567
aI-14
aI-360
aI867
abag1
(g2
g3
Ntp71
Rp72
(lp73
g1
(g7
g3
Ntp74
Rp75
(lp76
I1519097620
aI136703968
abaF499.7801263022431
aF484.78013672699933
aI250080
aI287016
aI-809
aI-3212
aI1888
aI10
aI-80
aI900
abag1
(g2
g3
Ntp77
Rp78
(lp79
g1
(g7
g3
Ntp80
Rp81
(lp82
I1519097620
aI233634948
abaF389.20573981240636
aF468.20013452924894
aI297244
aI324484
aI2334
aI-915
aI236
aI81
aI-353
aI873
abag1
(g2
g3
Ntp83
Rp84
(lp85
g1
(g7
g3
Ntp86
Rp87
(lp88
I1519097620
aI336672067
abaF485.8279272765025
aF495.1050669262428
aI327324
aI371536
aI4692
aI8562
aI137
aI-89
aI-82
aI875
abag1
(g2
g3
Ntp89
Rp90
(lp91
g1
(g7
g3
Ntp92
Rp93
(lp94
I1519097620
aI430743932
abaF476.8257034245077
aF218.87619055695467
aI373612
aI419640
aI193
aI2372
aI903
aI58
aI-94
aI893
abag1
(g2
g3
Ntp95
Rp96
(lp97
g1
(g7
g3
Ntp98
Rp99
(lp100
I1519097620
aI536725044
abaF449.5951195942866
aF300.870747085636
aI405932
aI440756
aI2384
aI-2629
aI-6010
aI270
aI-27
aI871
abag1
(g2
g3
Ntp101
Rp102
(lp103
g1
(g7
g3
Ntp104
Rp105
(lp106
I1519097620
aI634062051
abaF516.038440307166
aF387.8667009791647
aI449276
aI469432
aI-3462
aI381
aI4745
aI51
aI-71
aI886
abag1
(g2
g3
Ntp107
Rp108
(lp109
g1
(g7
g3
Ntp110
Rp111
(lp112
I1519097620
aI732006072
abaF272.7047099250548
aF557.3366107442056
aI498328
aI507580
aI2301
aI3314
aI-2414
aI133
aI-49
aI891
abag1
(g2
g3
Ntp113
Rp114
(lp115
g1
(g7
g3
Ntp116
Rp117
(lp118
I1519097620
aI836695909
abaF188.86366768456824
aF566.7695731967108
aI521936
aI561772
aI-806
aI7027
aI2480
aI-28
aI-120
aI884
abag1
(g2
g3
Ntp119
Rp120
(lp121
g1
(g7
g3
Ntp122
Rp123
(lp124
I1519097620
aI936341047
abaF197.47342607450366
aF508.6091163704897
aI542468
aI608320
aI682
aI4232
aI632
aI-4
aI-190
aI891
abag1
(g2
g3
Ntp125
Rp126
(lp127
g1
(g7
g3
Ntp128
Rp129
(lp130
I1519097621
aI33725023
abaF371.1027188496847
aF466.7855741468481
aI562512
aI644352
aI4887
aI-4626
aI-662
aI0
aI-330
aI872
abag1
(g2
g3
Ntp131
Rp132
(lp133
g1
(g7
g3
Ntp134
Rp135
(lp136
I1519097621
aI136739969
abaF569.8728193283025
aF408.37143525145143
aI587496
aI692504
aI996
aI4263
aI601
aI233
aI-93
aI862
abag1
(g2
g3
Ntp137
Rp138
(lp139
g1
(g7
g3
Ntp140
Rp141
(lp142
I1519097621
aI230842113
abaF585.5467253602935
aF284.12020427241384
aI643512
aI732736
aI3578
aI1014
aI-375
aI147
aI-98
aI896
abag1
(g2
g3
Ntp143
Rp144
(lp145
g1
(g7
g3
Ntp146
Rp147
(lp148
I1519097621
aI336083889
abaF548.837619867582
aF224.04838650304035
aI702516
aI762444
aI1937
aI-345
aI-3780
aI97
aI-55
aI901
abag1
(g2
g3
Ntp149
Rp150
(lp151
g1
(g7
g3
Ntp152
Rp153
(lp154
I1519097621
aI433844089
abaF448.17560506476
aF318.7269830333333
aI756752
aI786776
aI1351
aI1052
aI2054
aI108
aI-50
aI906
abag1
(g2
g3
Ntp155
Rp156
(lp157
g1
(g7
g3
Ntp158
Rp159
(lp160
I1519097621
aI529356002
abaF443.96275987644543
aF144.90497582247536
aI785232
aI816740
aI1368
aI2460
aI-399
aI227
aI-109
aI871
abag1
(g2
g3
Ntp161
Rp162
(lp163
g1
(g7
g3
Ntp164
Rp165
(lp166
I1519097621
aI631952047
abaF148.9844799759688
aF316.34178067078034
aI830612
aI830604
aI-4884
aI-4260
aI-3230
aI53
aI-22
aI889
abag1
(g2
g3
Ntp167
Rp168
(lp169
g1
(g7
g3
Ntp170
Rp171
(lp172
I1519097621
aI735513925
abaF272.0032817008988
aF415.98249924246323
aI846036
aI855700
aI1588
aI3647
aI6374
aI-16
aI-123
aI886
abag1
(g2
g3
Ntp173
Rp174
(lp175
g1
(g7
g3
Ntp176
Rp177
(lp178
I1519097621
aI832642078
abaF588.4628597681366
aF298.2978663638181
aI874080
aI898136
aI-1376
aI1452
aI-1858
aI53
aI-62
aI897
abag1
(g2
g3
Ntp179
Rp180
(lp181
g1
(g7
g3
Ntp182
Rp183
(lp184
I1519097621
aI935590028
abaF225.34256639749663
aF480.31872544533223
aI922940
aI929736
aI-2001
aI6307
aI1202
aI259
aI-67
aI875
abag1
(g2
g3
Ntp185
Rp186
(lp187
g1
(g7
g3
Ntp188
Rp189
(lp190
I1519097622
aI29364109
abaF454.45971615781036
aF279.95689989651214
aI945264
aI965340
aI1400
aI-1362
aI-1530
aI11
aI-360
aI864
abag1
(g2
g3
Ntp191
Rp192
(lp193
g1
(g7
g3
Ntp194
Rp195
(lp196
I1519097622
aI135349988
abaF505.7579925974402
aF337.4085313047098
aI981716
aI995432
aI-3398
aI5602
aI4612
aI242
aI-47
aI869
abag1
(g2
g3
Ntp197
Rp198
(lp199
g1
(g7
g3
Ntp200
Rp201
(lp202
I1519097622
aI244383096
abaF171.78346488037593
aF355.37785908458557
aI1028604
aI1028864
aI-5023
aI-424
aI-3763
aI141
aI-33
aI890
abag1
(g2
g3
Ntp203
Rp204
(lp205
g1
(g7
g3
Ntp206
Rp207
(lp208
I1519097622
aI331844091
abaF307.658027407577
aF417.50657850995697
aI1046828
aI1065476
aI-3548
aI3063
aI4554
aI11
aI-71
aI894
abag1
(g2
g3
Ntp209
Rp210
(lp211
g1
(g7
g3
Ntp212
Rp213
(lp214
I1519097622
aI438462018
abaF367.56831427587593
aF529.9610795362423
aI1077652
aI1099184
aI-393
aI-2557
aI-359
aI6
aI-358
aI854
abag1
(g2
g3
Ntp215
Rp216
(lp217
g1
(g7
g3
Ntp218
Rp219
(lp220
I1519097622
aI535924911
abaF227.6321276647523
aF285.6619430258095
aI1110748
aI1154348
aI-6208
aI6266
aI3784
aI267
aI-90
aI864
abag1
(g2
g3
Ntp221
Rp222
(lp223
g1
(g7
g3
Ntp224
Rp225
(lp226
I1519097622
aI631181001
abaF263.6693097500214
aF150.75471547750922
aI1134240
aI1183644
aI3138
aI-527
aI-956
aI55
aI-65
aI902
abag1
(g2
g3
Ntp227
Rp228
(lp229
g1
(g7
g3
Ntp230
Rp231
(lp232
I1519097622
aI734621047
abaF358.9229931576864
aF354.59367233953196
aI1161968
aI1199564
aI-1085
aI-1886
aI-1331
aI24
aI-36
aI897
abag1
(g2
g3
Ntp233
Rp234
(lp235
g1
(g7
g3
Ntp236
Rp237
(lp238
I1519097622
aI829011917
abaF346.5262408697322
aF507.8594725543503
aI1197776
aI1231024
aI362
aI-7293
aI-2611
aI38
aI-198
aI874
abag1
(g2
g3
Ntp239
Rp240
(lp241
g1
(g7
g3
Ntp242
Rp243
(lp244
I1519097622
aI934614896
abaF368.35202375802714
aF149.7564292465896
aI1233672
aI1283580
aI-2718
aI396
aI2837
aI32
aI-107
aI899
abag1
(g2
g3
Ntp245
Rp246
(lp247
g1
(g7
g3
Ntp248
Rp249
(lp250
I1519097623
aI31173944
abaF343.0187521563522
aF381.8141909114988
aI1270768
aI1298864
aI587
aI-3681
aI-2929
aI55
aI-42
aI892
abag1
(g2
g3
Ntp251
Rp252
(lp253
g1
(g7
g3
Ntp254
Rp255
(lp256
I1519097623
aI135046005
abaF449.6286263164668
aF547.3207331208023
aI1302672
aI1335708
aI1042
aI1107
aI1896
aI-257
aI-92
aI862
abag1
(g2
g3
Ntp257
Rp258
(lp259
g1
(g7
g3
Ntp260
Rp261
(lp262
I1519097623
aI228905916
abaF444.59138744926634
aF313.2360211346489
aI1348096
aI1387416
aI-411
aI1039
aI349
aI54
aI-158
aI887
abag1
(g2
g3
Ntp263
Rp264
(lp265
g1
(g7
g3
Ntp266
Rp267
(lp268
I1519097623
aI334112882
abaF139.52111147017854
aF418.34926238323186
aI1391788
aI1420404
aI1345
aI3035
aI-1204
aI80
aI-61
aI896
abag1
(g2
g3
Ntp269
Rp270
(lp271
g1
(g7
g3
Ntp272
Rp273
(lp274
I1519097623
aI430670022
abaF224.92757474240977
aF161.81018529467795
aI1408192
aI1457832
aI-566
aI-291
aI2170
aI-3
aI-107
aI888
abag1
(g2
g3
Ntp275
Rp276
(lp277
g1
(g7
g3
Ntp278
Rp279
(lp280
I1519097623
aI534307003
abaF253.3371605767452
aF202.68990681450833
aI1431900
aI1476752
aI3621
aI2375
aI704
aI24
aI-53
aI897
abag1
(g2
g3
Ntp281
Rp282
(lp283
g1
(g7
g3
Ntp284
Rp285
(lp286
I1519097623
aI626996994
abaF573.8709659961906
aF250.6735721620645
aI1456392
aI1494460
aI859
aI-2380
aI-3199
aI28
aI-14
aI875
abag1
(g2
g3
Ntp287
Rp288
(lp289
g1
(g7
g3
Ntp290
Rp291
(lp292
I1519097623
aI734400987
abaF303.08005415396354
aF218.77716739082302
aI1501672
aI1519792
aI-757
aI1286
aI1267
aI221
aI-39
aI856
abag1
(g2
g3
Ntp293
Rp294
(lp295
g1
(g7
g3
Ntp296
Rp297
(lp298
I1519097623
aI830360889
abaF533.7995650472601
aF450.19745594844403
aI1534348
aI1543556
aI115
aI618
aI-3530
aI42
aI-26
aI896
abag1
(g2
g3
Ntp299
Rp300
(lp301
g1
(g7
g3
Ntp302
Rp303
(lp304
I1519097623
aI935404062
abaF171.84407046030054
aF203.04702631376463
aI1576012
aI1569268
aI353
aI-376
aI2529
aI258
aI-318
aI843
aba.