(lp0
ccopy_reg
_reconstructor
p1
(cnn_dynamics_roach.msg._velroach_msg
velroach_msg
p2
c__builtin__
object
p3
Ntp4
Rp5
(lp6
g1
(crospy.rostime
Time
p7
g3
Ntp8
Rp9
(lp10
I1517624576
aI437746047
abaI0
aI0
aI10429736
aI7572140
aI-2
aI0
aI-2
aI5
aI-7
aI938
abag1
(g2
g3
Ntp11
Rp12
(lp13
g1
(g7
g3
Ntp14
Rp15
(lp16
I1517624576
aI497770071
abaF689.6225504900364
aF312.9974598073417
aI10429964
aI7572144
aI2
aI1
aI-2
aI9
aI7
aI944
abag1
(g2
g3
Ntp17
Rp18
(lp19
g1
(g7
g3
Ntp20
Rp21
(lp22
I1517624576
aI570097923
abaF766.9254043314088
aF356.97983152759343
aI10430200
aI7572140
aI-12
aI2
aI0
aI7
aI-4
aI942
abag1
(g2
g3
Ntp23
Rp24
(lp25
g1
(g7
g3
Ntp26
Rp27
(lp28
I1517624576
aI674129009
abaF693.8938587997733
aF313.53332344205916
aI10491464
aI7591088
aI2588
aI-6166
aI-2462
aI127
aI-351
aI899
abag1
(g2
g3
Ntp29
Rp30
(lp31
g1
(g7
g3
Ntp32
Rp33
(lp34
I1517624576
aI770092964
abaF712.6330794422154
aF318.76785098070224
aI10554360
aI7617732
aI-7573
aI225
aI-2906
aI290
aI21
aI882
abag1
(g2
g3
Ntp35
Rp36
(lp37
g1
(g7
g3
Ntp38
Rp39
(lp40
I1517624576
aI872803926
abaF748.6114139122643
aF299.83089999177446
aI10624200
aI7646752
aI-2432
aI-3743
aI-4746
aI104
aI-23
aI927
abag1
(g2
g3
Ntp41
Rp42
(lp43
g1
(g7
g3
Ntp44
Rp45
(lp46
I1517624576
aI977241039
abaF689.3605656191139
aF298.56457275431205
aI10681936
aI7671436
aI-3360
aI3779
aI3826
aI263
aI-52
aI899
abag1
(g2
g3
Ntp47
Rp48
(lp49
g1
(g7
g3
Ntp50
Rp51
(lp52
I1517624577
aI74132919
abaF767.7108602398107
aF310.9621576334707
aI10744780
aI7694512
aI7455
aI113
aI-207
aI270
aI-29
aI894
abag1
(g2
g3
Ntp53
Rp54
(lp55
g1
(g7
g3
Ntp56
Rp57
(lp58
I1517624577
aI170025110
abaF692.8272462688246
aF330.596058278745
aI10792792
aI7718312
aI1690
aI-1110
aI-586
aI277
aI-312
aI881
abag1
(g2
g3
Ntp59
Rp60
(lp61
g1
(g7
g3
Ntp62
Rp63
(lp64
I1517624577
aI272639036
abaF785.4131995009595
aF276.1974846645771
aI10859136
aI7748528
aI-1974
aI-1734
aI-2650
aI14
aI-42
aI906
abag1
(g2
g3
Ntp65
Rp66
(lp67
g1
(g7
g3
Ntp68
Rp69
(lp70
I1517624577
aI377022981
abaF762.7705981226036
aF329.9187944545
aI10913176
aI7775760
aI303
aI-920
aI2332
aI272
aI-22
aI907
abag1
(g2
g3
Ntp71
Rp72
(lp73
g1
(g7
g3
Ntp74
Rp75
(lp76
I1517624577
aI473649024
abaF781.3081790954377
aF267.51888919749325
aI10981500
aI7802840
aI4008
aI-82
aI1346
aI145
aI-87
aI927
abag1
(g2
g3
Ntp77
Rp78
(lp79
g1
(g7
g3
Ntp80
Rp81
(lp82
I1517624577
aI570049047
abaF773.7862762659385
aF320.17034392738475
aI11025840
aI7823900
aI-1673
aI-2119
aI-3891
aI294
aI-35
aI899
abag1
(g2
g3
Ntp83
Rp84
(lp85
g1
(g7
g3
Ntp86
Rp87
(lp88
I1517624577
aI681513071
abaF775.9384288175174
aF301.68242500571256
aI11088224
aI7847840
aI2999
aI486
aI-1774
aI275
aI-350
aI894
abag1
(g2
g3
Ntp89
Rp90
(lp91
g1
(g7
g3
Ntp92
Rp93
(lp94
I1517624577
aI768727064
abaF713.1279147360685
aF297.05011511110143
aI11140928
aI7854320
aI1610
aI-2080
aI-1828
aI251
aI-324
aI883
abag1
(g2
g3
Ntp95
Rp96
(lp97
g1
(g7
g3
Ntp98
Rp99
(lp100
I1517624577
aI873195886
abaF718.6637289894618
aF361.5708668668152
aI11208456
aI7882328
aI-65
aI-1840
aI-1918
aI301
aI-26
aI901
abag1
(g2
g3
Ntp101
Rp102
(lp103
g1
(g7
g3
Ntp104
Rp105
(lp106
I1517624577
aI969285964
abaF762.4517708270733
aF358.7149850958564
aI11281108
aI7914420
aI-2461
aI-4690
aI-7362
aI80
aI161
aI916
abag1
(g2
g3
Ntp107
Rp108
(lp109
g1
(g7
g3
Ntp110
Rp111
(lp112
I1517624578
aI80707073
abaF717.7000915045376
aF360.25119180608755
aI11343092
aI7952624
aI-5515
aI2938
aI1357
aI242
aI-36
aI907
abag1
(g2
g3
Ntp113
Rp114
(lp115
g1
(g7
g3
Ntp116
Rp117
(lp118
I1517624578
aI179539918
abaF785.0190836118201
aF276.0277483279415
aI11397448
aI7981876
aI-363
aI2341
aI103
aI263
aI37
aI884
abag1
(g2
g3
Ntp119
Rp120
(lp121
g1
(g7
g3
Ntp122
Rp123
(lp124
I1517624578
aI282747030
abaF784.4274515697572
aF304.3675856278125
aI11475748
aI8008192
aI3577
aI2944
aI-4829
aI47
aI-43
aI918
abag1
(g2
g3
Ntp125
Rp126
(lp127
g1
(g7
g3
Ntp128
Rp129
(lp130
I1517624578
aI338332891
abaF728.2558170463693
aF332.56255943832235
aI11475748
aI8008192
aI3577
aI2944
aI-4829
aI47
aI-43
aI918
abag1
(g2
g3
Ntp131
Rp132
(lp133
g1
(g7
g3
Ntp134
Rp135
(lp136
I1517624578
aI438493013
abaF553.4101921158997
aF602.7775663435345
aI11544960
aI8038416
aI-6238
aI-824
aI-2810
aI306
aI-41
aI905
abag1
(g2
g3
Ntp137
Rp138
(lp139
g1
(g7
g3
Ntp140
Rp141
(lp142
I1517624578
aI538373947
abaF615.4255292359975
aF602.1117022505543
aI11610944
aI8065100
aI-1225
aI1962
aI-172
aI283
aI-93
aI906
abag1
(g2
g3
Ntp143
Rp144
(lp145
g1
(g7
g3
Ntp146
Rp147
(lp148
I1517624578
aI638358116
abaF588.2976370778631
aF465.1736574136428
aI11660720
aI8118560
aI2812
aI2610
aI-419
aI265
aI-351
aI883
abag1
(g2
g3
Ntp149
Rp150
(lp151
g1
(g7
g3
Ntp152
Rp153
(lp154
I1517624578
aI738332033
abaF486.3406407149782
aF447.0479365646533
aI11725740
aI8175144
aI-2378
aI-8159
aI868
aI53
aI-10
aI926
abag1
(g2
g3
Ntp155
Rp156
(lp157
g1
(g7
g3
Ntp158
Rp159
(lp160
I1517624578
aI838278055
abaF588.5532920635463
aF508.5347517131445
aI11757960
aI8211564
aI246
aI-683
aI-3743
aI294
aI-320
aI888
abag1
(g2
g3
Ntp161
Rp162
(lp163
g1
(g7
g3
Ntp164
Rp165
(lp166
I1517624578
aI938390016
abaF580.0174551430437
aF458.2548126174629
aI11796848
aI8247212
aI3548
aI-1617
aI-756
aI248
aI-319
aI882
abag1
(g2
g3
Ntp167
Rp168
(lp169
g1
(g7
g3
Ntp170
Rp171
(lp172
I1517624579
aI38292884
abaF456.14667389089084
aF487.3515811801665
aI11859516
aI8295396
aI-3369
aI-3332
aI-3276
aI21
aI-82
aI917
abag1
(g2
g3
Ntp173
Rp174
(lp175
g1
(g7
g3
Ntp176
Rp177
(lp178
I1517624579
aI138641119
abaF576.3023679681116
aF451.8343709660052
aI11921716
aI8332404
aI1417
aI791
aI-6823
aI57
aI-141
aI929
abag1
(g2
g3
Ntp179
Rp180
(lp181
g1
(g7
g3
Ntp182
Rp183
(lp184
I1517624579
aI238425970
abaF565.3197524305016
aF465.14631029999174
aI11965364
aI8372424
aI-1669
aI-2925
aI-971
aI38
aI-340
aI891
abag1
(g2
g3
Ntp185
Rp186
(lp187
g1
(g7
g3
Ntp188
Rp189
(lp190
I1517624579
aI338359117
abaF488.28731488752015
aF511.72571929383076
aI12026128
aI8416540
aI-331
aI-4759
aI-200
aI70
aI-78
aI933
abag1
(g2
g3
Ntp191
Rp192
(lp193
g1
(g7
g3
Ntp194
Rp195
(lp196
I1517624579
aI438353061
abaF533.6162877447726
aF430.99067856971044
aI12080276
aI8453552
aI1739
aI-1206
aI-1087
aI98
aI-33
aI911
abag1
(g2
g3
Ntp197
Rp198
(lp199
g1
(g7
g3
Ntp200
Rp201
(lp202
I1517624579
aI538381099
abaF483.8739246146348
aF545.9365353305959
aI12124176
aI8502324
aI-12723
aI-1933
aI-1492
aI256
aI59
aI889
abag1
(g2
g3
Ntp203
Rp204
(lp205
g1
(g7
g3
Ntp206
Rp207
(lp208
I1517624579
aI638250112
abaF280.23711334089404
aF696.957816024567
aI12182984
aI8545972
aI3631
aI-1797
aI-3209
aI58
aI-71
aI929
abag1
(g2
g3
Ntp209
Rp210
(lp211
g1
(g7
g3
Ntp212
Rp213
(lp214
I1517624579
aI738286018
abaF328.03467067775864
aF778.2875963229213
aI12232180
aI8589764
aI2689
aI-1632
aI-1844
aI77
aI-373
aI912
abag1
(g2
g3
Ntp215
Rp216
(lp217
g1
(g7
g3
Ntp218
Rp219
(lp220
I1517624579
aI838361978
abaF295.089392179566
aF727.0903325591117
aI12260864
aI8640888
aI2743
aI-5820
aI3447
aI39
aI-332
aI903
abag1
(g2
g3
Ntp221
Rp222
(lp223
g1
(g7
g3
Ntp224
Rp225
(lp226
I1517624579
aI938467025
abaF328.41924230738255
aF778.0459141116255
aI12298128
aI8708008
aI-2080
aI-1871
aI232
aI53
aI-363
aI910
abag1
(g2
g3
Ntp227
Rp228
(lp229
g1
(g7
g3
Ntp230
Rp231
(lp232
I1517624580
aI38441896
abaF352.20184758873495
aF750.7702164254413
aI12327728
aI8770928
aI-3597
aI-2321
aI93
aI12
aI-346
aI895
abag1
(g2
g3
Ntp233
Rp234
(lp235
g1
(g7
g3
Ntp236
Rp237
(lp238
I1517624580
aI138371944
abaF358.11235655978817
aF709.6141963490886
aI12365428
aI8812696
aI147
aI-6755
aI-3186
aI18
aI-370
aI916
abag1
(g2
g3
Ntp239
Rp240
(lp241
g1
(g7
g3
Ntp242
Rp243
(lp244
I1517624580
aI238317012
abaF291.03801393924465
aF703.2596263587462
aI12406540
aI8867444
aI1633
aI-6323
aI-3766
aI6
aI-370
aI920
abag1
(g2
g3
Ntp245
Rp246
(lp247
g1
(g7
g3
Ntp248
Rp249
(lp250
I1517624580
aI338361978
abaF273.9722612195994
aF765.7404846455354
aI12443760
aI8920104
aI3102
aI204
aI2597
aI-3
aI-365
aI909
abag1
(g2
g3
Ntp251
Rp252
(lp253
g1
(g7
g3
Ntp254
Rp255
(lp256
I1517624580
aI438369035
abaF290.1189937287537
aF775.5114900441082
aI12476720
aI8966304
aI-480
aI-2539
aI-2921
aI22
aI-345
aI907
abag1
(g2
g3
Ntp257
Rp258
(lp259
g1
(g7
g3
Ntp260
Rp261
(lp262
I1517624580
aI538336038
abaF276.80580495051817
aF705.6819685769069
aI12506272
aI8993104
aI-2996
aI-2854
aI7208
aI-4
aI-382
aI915
abag1
(g2
g3
Ntp263
Rp264
(lp265
g1
(g7
g3
Ntp266
Rp267
(lp268
I1517624580
aI638290882
abaF339.6633007200114
aF767.517747777121
aI12537048
aI9073680
aI4291
aI2170
aI-320
aI52
aI-134
aI930
abag1
(g2
g3
Ntp269
Rp270
(lp271
g1
(g7
g3
Ntp272
Rp273
(lp274
I1517624580
aI738503932
abaF350.3178578923453
aF722.2295831658726
aI12568600
aI9111564
aI6931
aI-5784
aI-405
aI6
aI-337
aI917
abag1
(g2
g3
Ntp275
Rp276
(lp277
g1
(g7
g3
Ntp278
Rp279
(lp280
I1517624580
aI838453054
abaF309.7808157257963
aF740.3337153604646
aI12598216
aI9171500
aI331
aI-1990
aI-424
aI27
aI-341
aI901
abag1
(g2
g3
Ntp281
Rp282
(lp283
g1
(g7
g3
Ntp284
Rp285
(lp286
I1517624580
aI938426017
abaF299.36801344265893
aF761.625816928526
aI12637548
aI9229848
aI1671
aI-4746
aI124
aI20
aI-370
aI911
abag1
(g2
g3
Ntp287
Rp288
(lp289
g1
(g7
g3
Ntp290
Rp291
(lp292
I1517624581
aI38441896
abaF543.8591867106986
aF318.7706341992029
aI12671972
aI9290720
aI-6836
aI-7382
aI-2925
aI13
aI-334
aI905
abag1
(g2
g3
Ntp293
Rp294
(lp295
g1
(g7
g3
Ntp296
Rp297
(lp298
I1517624581
aI138379096
abaF615.6578080526233
aF783.4418030778228
aI12703760
aI9365572
aI-5737
aI2760
aI6834
aI7
aI-336
aI900
abag1
(g2
g3
Ntp299
Rp300
(lp301
g1
(g7
g3
Ntp302
Rp303
(lp304
I1517624581
aI238384008
abaF405.37944666064834
aF312.16896698916634
aI12749732
aI9402364
aI3864
aI6735
aI1863
aI168
aI-58
aI926
aba.