(lp0
ccopy_reg
_reconstructor
p1
(cnn_dynamics_roach.msg._velroach_msg
velroach_msg
p2
c__builtin__
object
p3
Ntp4
Rp5
(lp6
g1
(crospy.rostime
Time
p7
g3
Ntp8
Rp9
(lp10
I1518822476
aI269778013
abaI0
aI0
aI11690600
aI14771132
aI-946
aI3435
aI1602
aI21
aI-128
aI917
abag1
(g2
g3
Ntp11
Rp12
(lp13
g1
(g7
g3
Ntp14
Rp15
(lp16
I1518822476
aI330282926
abaF400.22056675361233
aF305.3559598586602
aI11693676
aI14777492
aI40
aI52
aI127
aI-7
aI-26
aI920
abag1
(g2
g3
Ntp17
Rp18
(lp19
g1
(g7
g3
Ntp20
Rp21
(lp22
I1518822476
aI401786088
abaF309.8683109643069
aF387.97874920203
aI11693680
aI14778244
aI-59
aI18
aI-88
aI-4
aI-20
aI920
abag1
(g2
g3
Ntp23
Rp24
(lp25
g1
(g7
g3
Ntp26
Rp27
(lp28
I1518822476
aI505146026
abaF145.1363084659513
aF369.97880428270287
aI11720692
aI14803812
aI-2485
aI1789
aI2485
aI-19
aI-385
aI880
abag1
(g2
g3
Ntp29
Rp30
(lp31
g1
(g7
g3
Ntp32
Rp33
(lp34
I1518822476
aI608655929
abaF317.04928855940057
aF222.89046937460625
aI11729712
aI14835124
aI77
aI1110
aI646
aI-10
aI-75
aI892
abag1
(g2
g3
Ntp35
Rp36
(lp37
g1
(g7
g3
Ntp38
Rp39
(lp40
I1518822476
aI705442905
abaF235.07894890592155
aF562.5959269171095
aI11757404
aI14853164
aI-1470
aI3337
aI-2678
aI13
aI-30
aI900
abag1
(g2
g3
Ntp41
Rp42
(lp43
g1
(g7
g3
Ntp44
Rp45
(lp46
I1518822476
aI802176952
abaF536.0022325109693
aF257.3093366012608
aI11778004
aI14903800
aI-2491
aI513
aI466
aI-16
aI-169
aI907
abag1
(g2
g3
Ntp47
Rp48
(lp49
g1
(g7
g3
Ntp50
Rp51
(lp52
I1518822476
aI906455039
abaF486.3674265339678
aF518.0394777942543
aI11826116
aI14925224
aI-5258
aI-6207
aI-4256
aI134
aI-28
aI901
abag1
(g2
g3
Ntp53
Rp54
(lp55
g1
(g7
g3
Ntp56
Rp57
(lp58
I1518822477
aI821113
abaF531.9891690578153
aF491.19980705106946
aI11862348
aI14973020
aI-680
aI2010
aI4341
aI250
aI-137
aI890
abag1
(g2
g3
Ntp59
Rp60
(lp61
g1
(g7
g3
Ntp62
Rp63
(lp64
I1518822477
aI104480981
abaF279.5258367123515
aF239.76844172441372
aI11914176
aI15010908
aI5840
aI-5044
aI1100
aI68
aI-212
aI914
abag1
(g2
g3
Ntp65
Rp66
(lp67
g1
(g7
g3
Ntp68
Rp69
(lp70
I1518822477
aI201018095
abaF561.9603692194651
aF473.2436675389359
aI11939364
aI15033936
aI4648
aI661
aI-2023
aI48
aI-54
aI915
abag1
(g2
g3
Ntp71
Rp72
(lp73
g1
(g7
g3
Ntp74
Rp75
(lp76
I1518822477
aI304346084
abaF322.07614794727726
aF574.5942963830336
aI11985600
aI15072132
aI4539
aI6121
aI2748
aI269
aI-157
aI879
abag1
(g2
g3
Ntp77
Rp78
(lp79
g1
(g7
g3
Ntp80
Rp81
(lp82
I1518822477
aI397320985
abaF589.4085784637948
aF337.9059558909923
aI12017704
aI15123120
aI-7914
aI-2654
aI1419
aI-7
aI-344
aI888
abag1
(g2
g3
Ntp83
Rp84
(lp85
g1
(g7
g3
Ntp86
Rp87
(lp88
I1518822477
aI504487991
abaF432.5538076030914
aF311.1010378551245
aI12070484
aI15156864
aI-3931
aI4320
aI0
aI88
aI-50
aI901
abag1
(g2
g3
Ntp89
Rp90
(lp91
g1
(g7
g3
Ntp92
Rp93
(lp94
I1518822477
aI600805997
abaF569.4069003726986
aF204.97605077474753
aI12112860
aI15185560
aI-717
aI-6669
aI-3414
aI21
aI-75
aI904
abag1
(g2
g3
Ntp95
Rp96
(lp97
g1
(g7
g3
Ntp98
Rp99
(lp100
I1518822477
aI703708887
abaF536.8838967936584
aF461.61104351653483
aI12169240
aI15206516
aI-812
aI-687
aI3012
aI96
aI-51
aI919
abag1
(g2
g3
Ntp101
Rp102
(lp103
g1
(g7
g3
Ntp104
Rp105
(lp106
I1518822477
aI796971082
abaF428.5263494352067
aF136.53289486738208
aI12218696
aI15252620
aI2345
aI5079
aI1826
aI133
aI-89
aI915
abag1
(g2
g3
Ntp107
Rp108
(lp109
g1
(g7
g3
Ntp110
Rp111
(lp112
I1518822477
aI903713941
abaF441.55830718528057
aF173.80729867757634
aI12254040
aI15265052
aI-1876
aI5366
aI4088
aI269
aI-49
aI888
abag1
(g2
g3
Ntp113
Rp114
(lp115
g1
(g7
g3
Ntp116
Rp117
(lp118
I1518822478
aI423908
abaF258.2643825286694
aF485.04925457310094
aI12295852
aI15283168
aI1127
aI280
aI-1124
aI37
aI-43
aI908
abag1
(g2
g3
Ntp119
Rp120
(lp121
g1
(g7
g3
Ntp122
Rp123
(lp124
I1518822478
aI103281974
abaF218.93868788534607
aF376.552930275202
aI12316544
aI15321476
aI3225
aI-2765
aI-1291
aI-177
aI-323
aI872
abag1
(g2
g3
Ntp125
Rp126
(lp127
g1
(g7
g3
Ntp128
Rp129
(lp130
I1518822478
aI207331895
abaF201.95370571186248
aF559.100050117384
aI12338996
aI15355388
aI2295
aI-2724
aI-852
aI11
aI-14
aI899
abag1
(g2
g3
Ntp131
Rp132
(lp133
g1
(g7
g3
Ntp134
Rp135
(lp136
I1518822478
aI303304910
abaF450.4173718557232
aF240.83443699460753
aI12358256
aI15397560
aI2154
aI-4146
aI2513
aI-22
aI-376
aI895
abag1
(g2
g3
Ntp137
Rp138
(lp139
g1
(g7
g3
Ntp140
Rp141
(lp142
I1518822478
aI411557912
abaF158.1533817144966
aF372.7620221860495
aI12388344
aI15421840
aI4567
aI2638
aI-964
aI302
aI-51
aI891
abag1
(g2
g3
Ntp143
Rp144
(lp145
g1
(g7
g3
Ntp146
Rp147
(lp148
I1518822478
aI470565080
abaF478.12236380460035
aF452.2448336383842
aI12388344
aI15421840
aI4567
aI2638
aI-964
aI302
aI-51
aI891
abag1
(g2
g3
Ntp149
Rp150
(lp151
g1
(g7
g3
Ntp152
Rp153
(lp154
I1518822478
aI570414066
abaF160.0794463878862
aF499.119824833995
aI12405360
aI15453808
aI-4111
aI-9488
aI-948
aI-1
aI51
aI895
abag1
(g2
g3
Ntp155
Rp156
(lp157
g1
(g7
g3
Ntp158
Rp159
(lp160
I1518822478
aI670377016
abaF357.79080949030913
aF338.52558813096834
aI12446380
aI15497580
aI-3680
aI1732
aI1423
aI257
aI-117
aI886
abag1
(g2
g3
Ntp161
Rp162
(lp163
g1
(g7
g3
Ntp164
Rp165
(lp166
I1518822478
aI770373106
abaF470.31643601837794
aF383.3732914590437
aI12463980
aI15546572
aI-1009
aI-326
aI-1441
aI7
aI-156
aI915
abag1
(g2
g3
Ntp167
Rp168
(lp169
g1
(g7
g3
Ntp170
Rp171
(lp172
I1518822478
aI870394945
abaF442.97023558914896
aF207.74965979362167
aI12500108
aI15577660
aI-5336
aI-2285
aI-337
aI37
aI-24
aI901
abag1
(g2
g3
Ntp173
Rp174
(lp175
g1
(g7
g3
Ntp176
Rp177
(lp178
I1518822478
aI970386028
abaF153.0304758378221
aF243.7930384822514
aI12547348
aI15616940
aI-2410
aI5077
aI3133
aI45
aI-78
aI916
abag1
(g2
g3
Ntp179
Rp180
(lp181
g1
(g7
g3
Ntp182
Rp183
(lp184
I1518822479
aI70296049
abaF454.94304633009995
aF253.37023147233637
aI12581780
aI15637492
aI-1324
aI4536
aI-2191
aI235
aI-38
aI883
abag1
(g2
g3
Ntp185
Rp186
(lp187
g1
(g7
g3
Ntp188
Rp189
(lp190
I1518822479
aI170348882
abaF276.1972421484544
aF503.11449174328453
aI12598580
aI15658140
aI-1543
aI-7972
aI-173
aI-3
aI-120
aI907
abag1
(g2
g3
Ntp191
Rp192
(lp193
g1
(g7
g3
Ntp194
Rp195
(lp196
I1518822479
aI270468950
abaF380.9635620944906
aF440.48671227867914
aI12641536
aI15683716
aI-3672
aI-4242
aI-3264
aI6
aI-48
aI901
abag1
(g2
g3
Ntp197
Rp198
(lp199
g1
(g7
g3
Ntp200
Rp201
(lp202
I1518822479
aI370409011
abaF367.46560779200365
aF514.5520575844105
aI12670332
aI15721064
aI2912
aI-7614
aI1809
aI3
aI-337
aI896
abag1
(g2
g3
Ntp203
Rp204
(lp205
g1
(g7
g3
Ntp206
Rp207
(lp208
I1518822479
aI470356941
abaF486.2166006798247
aF489.82223359522067
aI12706372
aI15765212
aI-4897
aI-854
aI1167
aI-18
aI-115
aI897
abag1
(g2
g3
Ntp209
Rp210
(lp211
g1
(g7
g3
Ntp212
Rp213
(lp214
I1518822479
aI570373058
abaF531.3838363195384
aF241.32171408488767
aI12740796
aI15814708
aI-1938
aI-2816
aI-2635
aI18
aI-85
aI910
abag1
(g2
g3
Ntp215
Rp216
(lp217
g1
(g7
g3
Ntp218
Rp219
(lp220
I1518822479
aI670324087
abaF175.99603305097276
aF233.78026686726918
aI12783204
aI15852568
aI1504
aI1015
aI3660
aI-164
aI-342
aI874
abag1
(g2
g3
Ntp221
Rp222
(lp223
g1
(g7
g3
Ntp224
Rp225
(lp226
I1518822479
aI770394086
abaF201.83048251570096
aF298.31009405933384
aI12837200
aI15875576
aI-3557
aI-6061
aI947
aI59
aI-6
aI901
abag1
(g2
g3
Ntp227
Rp228
(lp229
g1
(g7
g3
Ntp230
Rp231
(lp232
I1518822479
aI870642900
abaF263.7274132253631
aF381.2118701739947
aI12856548
aI15899380
aI-57
aI1027
aI-25
aI5
aI-35
aI911
abag1
(g2
g3
Ntp233
Rp234
(lp235
g1
(g7
g3
Ntp236
Rp237
(lp238
I1518822479
aI970417976
abaF290.26503312832745
aF366.3994409642978
aI12877248
aI15929880
aI-510
aI-525
aI4223
aI0
aI-73
aI914
abag1
(g2
g3
Ntp239
Rp240
(lp241
g1
(g7
g3
Ntp242
Rp243
(lp244
I1518822480
aI70553064
abaF288.51960759458314
aF433.00042811496104
aI12901940
aI15968324
aI-2635
aI5684
aI2856
aI-3
aI-61
aI901
abag1
(g2
g3
Ntp245
Rp246
(lp247
g1
(g7
g3
Ntp248
Rp249
(lp250
I1518822480
aI170401096
abaF455.27635699700204
aF461.1720311179586
aI12932392
aI16006444
aI158
aI-2034
aI-4366
aI31
aI-67
aI918
abag1
(g2
g3
Ntp251
Rp252
(lp253
g1
(g7
g3
Ntp254
Rp255
(lp256
I1518822480
aI270364046
abaF255.48153475099386
aF174.07941133979426
aI12962916
aI16044552
aI7110
aI-9396
aI1965
aI4
aI28
aI894
abag1
(g2
g3
Ntp257
Rp258
(lp259
g1
(g7
g3
Ntp260
Rp261
(lp262
I1518822480
aI370383977
abaF535.9820926418415
aF251.25451508432707
aI13009120
aI16089708
aI3554
aI-5890
aI2106
aI73
aI-114
aI918
abag1
(g2
g3
Ntp263
Rp264
(lp265
g1
(g7
g3
Ntp266
Rp267
(lp268
I1518822480
aI470376014
abaF257.17317567728094
aF187.24899669954615
aI13033908
aI16104932
aI8642
aI-234
aI571
aI29
aI-59
aI899
abag1
(g2
g3
Ntp269
Rp270
(lp271
g1
(g7
g3
Ntp272
Rp273
(lp274
I1518822480
aI570405006
abaF587.1214447509917
aF198.51117091136933
aI13085932
aI16131368
aI1156
aI-761
aI3180
aI66
aI-44
aI913
abag1
(g2
g3
Ntp275
Rp276
(lp277
g1
(g7
g3
Ntp278
Rp279
(lp280
I1518822480
aI670346021
abaF228.68587810251023
aF580.6841807942053
aI13106240
aI16151212
aI2741
aI2674
aI1849
aI265
aI-48
aI886
abag1
(g2
g3
Ntp281
Rp282
(lp283
g1
(g7
g3
Ntp284
Rp285
(lp286
I1518822480
aI770270109
abaF167.74483113652093
aF565.6701655871744
aI13135688
aI16168948
aI-3778
aI-3927
aI-3380
aI302
aI-2
aI888
abag1
(g2
g3
Ntp287
Rp288
(lp289
g1
(g7
g3
Ntp290
Rp291
(lp292
I1518822480
aI870455026
abaF189.31562451907843
aF508.0509449919555
aI13159696
aI16228980
aI-1520
aI-744
aI4237
aI-2
aI-111
aI909
abag1
(g2
g3
Ntp293
Rp294
(lp295
g1
(g7
g3
Ntp296
Rp297
(lp298
I1518822480
aI970398902
abaF144.53670188432523
aF532.2133215912118
aI13176428
aI16285360
aI1562
aI6137
aI-3761
aI40
aI-120
aI917
abag1
(g2
g3
Ntp299
Rp300
(lp301
g1
(g7
g3
Ntp302
Rp303
(lp304
I1518822481
aI70353031
abaF582.5391240068767
aF150.83864726556897
aI13197604
aI16321628
aI690
aI-2583
aI2622
aI2
aI-401
aI902
aba.