(lp0
ccopy_reg
_reconstructor
p1
(cgeometry_msgs.msg._PoseStamped
PoseStamped
p2
c__builtin__
object
p3
Ntp4
Rp5
(lp6
g1
(cstd_msgs.msg._Header
Header
p7
g3
Ntp8
Rp9
(lp10
I115430
ag1
(cgenpy.rostime
Time
p11
g3
Ntp12
Rp13
(lp14
I1516401635
aI191642374
abaS'world'
p15
abag1
(cgeometry_msgs.msg._Pose
Pose
p16
g3
Ntp17
Rp18
(lp19
g1
(cgeometry_msgs.msg._Point
Point
p20
g3
Ntp21
Rp22
(lp23
F0.3656851351261139
aF2.264061212539673
aF0.07833148539066315
abag1
(cgeometry_msgs.msg._Quaternion
Quaternion
p24
g3
Ntp25
Rp26
(lp27
F-0.013281246647238731
aF-0.039144374430179596
aF0.6159595251083374
aF0.7866925597190857
abababag1
(g2
g3
Ntp28
Rp29
(lp30
g1
(g7
g3
Ntp31
Rp32
(lp33
I115437
ag1
(g11
g3
Ntp34
Rp35
(lp36
I1516401635
aI261652942
abaS'world'
p37
abag1
(g16
g3
Ntp38
Rp39
(lp40
g1
(g20
g3
Ntp41
Rp42
(lp43
F0.36566150188446045
aF2.2640607357025146
aF0.07834619283676147
abag1
(g24
g3
Ntp44
Rp45
(lp46
F-0.013467314653098583
aF-0.039072345942258835
aF0.6161423921585083
aF0.7865497469902039
abababag1
(g2
g3
Ntp47
Rp48
(lp49
g1
(g7
g3
Ntp50
Rp51
(lp52
I115443
ag1
(g11
g3
Ntp53
Rp54
(lp55
I1516401635
aI321680405
abaS'world'
p56
abag1
(g16
g3
Ntp57
Rp58
(lp59
g1
(g20
g3
Ntp60
Rp61
(lp62
F0.3656574487686157
aF2.264241933822632
aF0.07854416966438293
abag1
(g24
g3
Ntp63
Rp64
(lp65
F-0.013449068181216717
aF-0.03459743410348892
aF0.6153193116188049
aF0.7874035239219666
abababag1
(g2
g3
Ntp66
Rp67
(lp68
g1
(g7
g3
Ntp69
Rp70
(lp71
I115454
ag1
(g11
g3
Ntp72
Rp73
(lp74
I1516401635
aI431768075
abaS'world'
p75
abag1
(g16
g3
Ntp76
Rp77
(lp78
g1
(g20
g3
Ntp79
Rp80
(lp81
F0.3784029185771942
aF2.2635927200317383
aF0.08016979694366455
abag1
(g24
g3
Ntp82
Rp83
(lp84
F0.030740387737751007
aF0.02949300967156887
aF0.5198483467102051
aF0.8531956672668457
abababag1
(g2
g3
Ntp85
Rp86
(lp87
g1
(g7
g3
Ntp88
Rp89
(lp90
I115464
ag1
(g11
g3
Ntp91
Rp92
(lp93
I1516401635
aI531621527
abaS'world'
p94
abag1
(g16
g3
Ntp95
Rp96
(lp97
g1
(g20
g3
Ntp98
Rp99
(lp100
F0.38417956233024597
aF2.2810120582580566
aF0.08438118547201157
abag1
(g24
g3
Ntp101
Rp102
(lp103
F-0.020903494209051132
aF-0.05683063715696335
aF0.4342297911643982
aF0.8987646698951721
abababag1
(g2
g3
Ntp104
Rp105
(lp106
g1
(g7
g3
Ntp107
Rp108
(lp109
I115474
ag1
(g11
g3
Ntp110
Rp111
(lp112
I1516401635
aI631674672
abaS'world'
p113
abag1
(g16
g3
Ntp114
Rp115
(lp116
g1
(g20
g3
Ntp117
Rp118
(lp119
F0.3939846456050873
aF2.3153738975524902
aF0.08104914426803589
abag1
(g24
g3
Ntp120
Rp121
(lp122
F-0.026910267770290375
aF-0.02074330486357212
aF0.452422559261322
aF0.8911562561988831
abababag1
(g2
g3
Ntp123
Rp124
(lp125
g1
(g7
g3
Ntp126
Rp127
(lp128
I115483
ag1
(g11
g3
Ntp129
Rp130
(lp131
I1516401635
aI721588909
abaS'world'
p132
abag1
(g16
g3
Ntp133
Rp134
(lp135
g1
(g20
g3
Ntp136
Rp137
(lp138
F0.4200533628463745
aF2.340818405151367
aF0.08343113213777542
abag1
(g24
g3
Ntp139
Rp140
(lp141
F-0.040127504616975784
aF-0.05287213250994682
aF0.3231163024902344
aF0.9440287947654724
abababag1
(g2
g3
Ntp142
Rp143
(lp144
g1
(g7
g3
Ntp145
Rp146
(lp147
I115495
ag1
(g11
g3
Ntp148
Rp149
(lp150
I1516401635
aI841840807
abaS'world'
p151
abag1
(g16
g3
Ntp152
Rp153
(lp154
g1
(g20
g3
Ntp155
Rp156
(lp157
F0.4490736722946167
aF2.3757734298706055
aF0.08392291516065598
abag1
(g24
g3
Ntp158
Rp159
(lp160
F0.0059791975654661655
aF-0.03795969858765602
aF0.1507359892129898
aF0.9878268837928772
abababag1
(g2
g3
Ntp161
Rp162
(lp163
g1
(g7
g3
Ntp164
Rp165
(lp166
I115500
ag1
(g11
g3
Ntp167
Rp168
(lp169
I1516401635
aI891749124
abaS'world'
p170
abag1
(g16
g3
Ntp171
Rp172
(lp173
g1
(g20
g3
Ntp174
Rp175
(lp176
F0.4693053066730499
aF2.380955934524536
aF0.07954687625169754
abag1
(g24
g3
Ntp177
Rp178
(lp179
F0.13724933564662933
aF0.008756172843277454
aF0.12245819717645645
aF0.9828987717628479
abababag1
(g2
g3
Ntp180
Rp181
(lp182
g1
(g7
g3
Ntp183
Rp184
(lp185
I115510
ag1
(g11
g3
Ntp186
Rp187
(lp188
I1516401635
aI991677741
abaS'world'
p189
abag1
(g16
g3
Ntp190
Rp191
(lp192
g1
(g20
g3
Ntp193
Rp194
(lp195
F0.48178085684776306
aF2.414318084716797
aF0.08900374174118042
abag1
(g24
g3
Ntp196
Rp197
(lp198
F-0.09741096198558807
aF-0.09609329700469971
aF0.10477668046951294
aF0.985037624835968
abababag1
(g2
g3
Ntp199
Rp200
(lp201
g1
(g7
g3
Ntp202
Rp203
(lp204
I115520
ag1
(g11
g3
Ntp205
Rp206
(lp207
I1516401636
aI91711916
abaS'world'
p208
abag1
(g16
g3
Ntp209
Rp210
(lp211
g1
(g20
g3
Ntp212
Rp213
(lp214
F0.5151746869087219
aF2.4426889419555664
aF0.08350744843482971
abag1
(g24
g3
Ntp215
Rp216
(lp217
F-0.08725577592849731
aF-0.026929881423711777
aF0.22094841301441193
aF0.9710010886192322
abababag1
(g2
g3
Ntp218
Rp219
(lp220
g1
(g7
g3
Ntp221
Rp222
(lp223
I115530
ag1
(g11
g3
Ntp224
Rp225
(lp226
I1516401636
aI191713715
abaS'world'
p227
abag1
(g16
g3
Ntp228
Rp229
(lp230
g1
(g20
g3
Ntp231
Rp232
(lp233
F0.5700200796127319
aF2.4602696895599365
aF0.09425970911979675
abag1
(g24
g3
Ntp234
Rp235
(lp236
F-0.06801503896713257
aF-0.035430654883384705
aF0.1727197766304016
aF0.9819809794425964
abababag1
(g2
g3
Ntp237
Rp238
(lp239
g1
(g7
g3
Ntp240
Rp241
(lp242
I115540
ag1
(g11
g3
Ntp243
Rp244
(lp245
I1516401636
aI291629016
abaS'world'
p246
abag1
(g16
g3
Ntp247
Rp248
(lp249
g1
(g20
g3
Ntp250
Rp251
(lp252
F0.6267924904823303
aF2.47428035736084
aF0.07924720644950867
abag1
(g24
g3
Ntp253
Rp254
(lp255
F-0.025391006842255592
aF-0.02703438699245453
aF0.11648157238960266
aF0.9925001859664917
abababag1
(g2
g3
Ntp256
Rp257
(lp258
g1
(g7
g3
Ntp259
Rp260
(lp261
I115550
ag1
(g11
g3
Ntp262
Rp263
(lp264
I1516401636
aI391678843
abaS'world'
p265
abag1
(g16
g3
Ntp266
Rp267
(lp268
g1
(g20
g3
Ntp269
Rp270
(lp271
F0.6578695178031921
aF2.46247935295105
aF0.0978178083896637
abag1
(g24
g3
Ntp272
Rp273
(lp274
F0.05328751727938652
aF-0.0969773381948471
aF0.015919357538223267
aF0.9937315583229065
abababag1
(g2
g3
Ntp275
Rp276
(lp277
g1
(g7
g3
Ntp278
Rp279
(lp280
I115560
ag1
(g11
g3
Ntp281
Rp282
(lp283
I1516401636
aI491570075
abaS'world'
p284
abag1
(g16
g3
Ntp285
Rp286
(lp287
g1
(g20
g3
Ntp288
Rp289
(lp290
F0.6921830177307129
aF2.4527945518493652
aF0.07610929757356644
abag1
(g24
g3
Ntp291
Rp292
(lp293
F-0.054746467620134354
aF-0.015053743496537209
aF-0.13092368841171265
aF0.9897652864456177
abababag1
(g2
g3
Ntp294
Rp295
(lp296
g1
(g7
g3
Ntp297
Rp298
(lp299
I115570
ag1
(g11
g3
Ntp300
Rp301
(lp302
I1516401636
aI591598229
abaS'world'
p303
abag1
(g16
g3
Ntp304
Rp305
(lp306
g1
(g20
g3
Ntp307
Rp308
(lp309
F0.7239217162132263
aF2.4341750144958496
aF0.08876899629831314
abag1
(g24
g3
Ntp310
Rp311
(lp312
F0.002254883758723736
aF-0.02323349006474018
aF-0.1253795623779297
aF0.991834282875061
abababag1
(g2
g3
Ntp313
Rp314
(lp315
g1
(g7
g3
Ntp316
Rp317
(lp318
I115580
ag1
(g11
g3
Ntp319
Rp320
(lp321
I1516401636
aI691760599
abaS'world'
p322
abag1
(g16
g3
Ntp323
Rp324
(lp325
g1
(g20
g3
Ntp326
Rp327
(lp328
F0.7673983573913574
aF2.4187707901000977
aF0.08322146534919739
abag1
(g24
g3
Ntp329
Rp330
(lp331
F-0.03601223975419998
aF0.08912976086139679
aF-0.14014391601085663
aF0.9854536056518555
abababag1
(g2
g3
Ntp332
Rp333
(lp334
g1
(g7
g3
Ntp335
Rp336
(lp337
I115590
ag1
(g11
g3
Ntp338
Rp339
(lp340
I1516401636
aI791654673
abaS'world'
p341
abag1
(g16
g3
Ntp342
Rp343
(lp344
g1
(g20
g3
Ntp345
Rp346
(lp347
F0.8059062957763672
aF2.4136383533477783
aF0.08453469723463058
abag1
(g24
g3
Ntp348
Rp349
(lp350
F-0.09725620597600937
aF-0.019263383001089096
aF-0.2073391228914261
aF0.973232090473175
abababag1
(g2
g3
Ntp351
Rp352
(lp353
g1
(g7
g3
Ntp354
Rp355
(lp356
I115600
ag1
(g11
g3
Ntp357
Rp358
(lp359
I1516401636
aI891694334
abaS'world'
p360
abag1
(g16
g3
Ntp361
Rp362
(lp363
g1
(g20
g3
Ntp364
Rp365
(lp366
F0.8637056946754456
aF2.3959543704986572
aF0.07967168837785721
abag1
(g24
g3
Ntp367
Rp368
(lp369
F-0.006942689884454012
aF0.057148292660713196
aF-0.19423748552799225
aF0.9792639017105103
abababag1
(g2
g3
Ntp370
Rp371
(lp372
g1
(g7
g3
Ntp373
Rp374
(lp375
I115610
ag1
(g11
g3
Ntp376
Rp377
(lp378
I1516401636
aI991612501
abaS'world'
p379
abag1
(g16
g3
Ntp380
Rp381
(lp382
g1
(g20
g3
Ntp383
Rp384
(lp385
F0.9047179818153381
aF2.3732869625091553
aF0.0875202864408493
abag1
(g24
g3
Ntp386
Rp387
(lp388
F-0.06169440969824791
aF0.039374105632305145
aF-0.24900923669338226
aF0.9657317399978638
abababag1
(g2
g3
Ntp389
Rp390
(lp391
g1
(g7
g3
Ntp392
Rp393
(lp394
I115620
ag1
(g11
g3
Ntp395
Rp396
(lp397
I1516401637
aI91677703
abaS'world'
p398
abag1
(g16
g3
Ntp399
Rp400
(lp401
g1
(g20
g3
Ntp402
Rp403
(lp404
F0.9477202892303467
aF2.3446991443634033
aF0.078711599111557
abag1
(g24
g3
Ntp405
Rp406
(lp407
F-0.0741783007979393
aF0.02404547482728958
aF-0.31228992342948914
aF0.9467811584472656
abababag1
(g2
g3
Ntp408
Rp409
(lp410
g1
(g7
g3
Ntp411
Rp412
(lp413
I115630
ag1
(g11
g3
Ntp414
Rp415
(lp416
I1516401637
aI191740472
abaS'world'
p417
abag1
(g16
g3
Ntp418
Rp419
(lp420
g1
(g20
g3
Ntp421
Rp422
(lp423
F0.9757232666015625
aF2.3174307346343994
aF0.08013943582773209
abag1
(g24
g3
Ntp424
Rp425
(lp426
F-0.03817407786846161
aF0.02894245833158493
aF-0.4036168158054352
aF0.9136731028556824
abababag1
(g2
g3
Ntp427
Rp428
(lp429
g1
(g7
g3
Ntp430
Rp431
(lp432
I115640
ag1
(g11
g3
Ntp433
Rp434
(lp435
I1516401637
aI291662389
abaS'world'
p436
abag1
(g16
g3
Ntp437
Rp438
(lp439
g1
(g20
g3
Ntp440
Rp441
(lp442
F0.9932602047920227
aF2.2956669330596924
aF0.08060535788536072
abag1
(g24
g3
Ntp443
Rp444
(lp445
F-0.007399904076009989
aF-0.02108800783753395
aF-0.3320581316947937
aF0.9429941177368164
abababag1
(g2
g3
Ntp446
Rp447
(lp448
g1
(g7
g3
Ntp449
Rp450
(lp451
I115650
ag1
(g11
g3
Ntp452
Rp453
(lp454
I1516401637
aI391523733
abaS'world'
p455
abag1
(g16
g3
Ntp456
Rp457
(lp458
g1
(g20
g3
Ntp459
Rp460
(lp461
F1.0005801916122437
aF2.2511706352233887
aF0.0786038264632225
abag1
(g24
g3
Ntp462
Rp463
(lp464
F0.0896434634923935
aF0.009313701651990414
aF-0.45694246888160706
aF0.8849186301231384
abababag1
(g2
g3
Ntp465
Rp466
(lp467
g1
(g7
g3
Ntp468
Rp469
(lp470
I115660
ag1
(g11
g3
Ntp471
Rp472
(lp473
I1516401637
aI491685831
abaS'world'
p474
abag1
(g16
g3
Ntp475
Rp476
(lp477
g1
(g20
g3
Ntp478
Rp479
(lp480
F1.0267287492752075
aF2.220264434814453
aF0.08901996165513992
abag1
(g24
g3
Ntp481
Rp482
(lp483
F-0.10537582635879517
aF-0.013973542489111423
aF-0.5136627554893494
aF0.8513819575309753
abababag1
(g2
g3
Ntp484
Rp485
(lp486
g1
(g7
g3
Ntp487
Rp488
(lp489
I115670
ag1
(g11
g3
Ntp490
Rp491
(lp492
I1516401637
aI591778104
abaS'world'
p493
abag1
(g16
g3
Ntp494
Rp495
(lp496
g1
(g20
g3
Ntp497
Rp498
(lp499
F1.0355359315872192
aF2.1698803901672363
aF0.0830838605761528
abag1
(g24
g3
Ntp500
Rp501
(lp502
F-0.029602663591504097
aF-0.00661330483853817
aF-0.6496708393096924
aF0.7596103549003601
abababag1
(g2
g3
Ntp503
Rp504
(lp505
g1
(g7
g3
Ntp506
Rp507
(lp508
I115680
ag1
(g11
g3
Ntp509
Rp510
(lp511
I1516401637
aI691821777
abaS'world'
p512
abag1
(g16
g3
Ntp513
Rp514
(lp515
g1
(g20
g3
Ntp516
Rp517
(lp518
F1.0310636758804321
aF2.112640619277954
aF0.07186122983694077
abag1
(g24
g3
Ntp519
Rp520
(lp521
F0.05828505754470825
aF0.028735855594277382
aF-0.7359679937362671
aF0.6738903522491455
abababag1
(g2
g3
Ntp522
Rp523
(lp524
g1
(g7
g3
Ntp525
Rp526
(lp527
I115690
ag1
(g11
g3
Ntp528
Rp529
(lp530
I1516401637
aI791706750
abaS'world'
p531
abag1
(g16
g3
Ntp532
Rp533
(lp534
g1
(g20
g3
Ntp535
Rp536
(lp537
F1.0233433246612549
aF2.077521800994873
aF0.08611249923706055
abag1
(g24
g3
Ntp538
Rp539
(lp540
F-0.008474764414131641
aF0.019032344222068787
aF-0.7688088417053223
aF0.6391391754150391
abababag1
(g2
g3
Ntp541
Rp542
(lp543
g1
(g7
g3
Ntp544
Rp545
(lp546
I115700
ag1
(g11
g3
Ntp547
Rp548
(lp549
I1516401637
aI891583749
abaS'world'
p550
abag1
(g16
g3
Ntp551
Rp552
(lp553
g1
(g20
g3
Ntp554
Rp555
(lp556
F1.017844557762146
aF2.035778045654297
aF0.07561717927455902
abag1
(g24
g3
Ntp557
Rp558
(lp559
F0.09690762311220169
aF-0.0707596093416214
aF-0.6747361421585083
aF0.7282398343086243
abababag1
(g2
g3
Ntp560
Rp561
(lp562
g1
(g7
g3
Ntp563
Rp564
(lp565
I115710
ag1
(g11
g3
Ntp566
Rp567
(lp568
I1516401637
aI991695222
abaS'world'
p569
abag1
(g16
g3
Ntp570
Rp571
(lp572
g1
(g20
g3
Ntp573
Rp574
(lp575
F1.022428035736084
aF2.002981185913086
aF0.07350388914346695
abag1
(g24
g3
Ntp576
Rp577
(lp578
F0.010084073059260845
aF0.012024329043924809
aF-0.6416887640953064
aF0.766804575920105
abababag1
(g2
g3
Ntp579
Rp580
(lp581
g1
(g7
g3
Ntp582
Rp583
(lp584
I115720
ag1
(g11
g3
Ntp585
Rp586
(lp587
I1516401638
aI91589710
abaS'world'
p588
abag1
(g16
g3
Ntp589
Rp590
(lp591
g1
(g20
g3
Ntp592
Rp593
(lp594
F1.0253180265426636
aF1.9763938188552856
aF0.07908062636852264
abag1
(g24
g3
Ntp595
Rp596
(lp597
F-0.05740617215633392
aF0.009379417635500431
aF-0.5960871577262878
aF0.800809919834137
abababag1
(g2
g3
Ntp598
Rp599
(lp600
g1
(g7
g3
Ntp601
Rp602
(lp603
I115730
ag1
(g11
g3
Ntp604
Rp605
(lp606
I1516401638
aI191758265
abaS'world'
p607
abag1
(g16
g3
Ntp608
Rp609
(lp610
g1
(g20
g3
Ntp611
Rp612
(lp613
F1.0438092947006226
aF1.9259490966796875
aF0.07261453568935394
abag1
(g24
g3
Ntp614
Rp615
(lp616
F0.006289388053119183
aF0.11225178092718124
aF-0.6403935551643372
aF0.7597737312316895
abababag1
(g2
g3
Ntp617
Rp618
(lp619
g1
(g7
g3
Ntp620
Rp621
(lp622
I115740
ag1
(g11
g3
Ntp623
Rp624
(lp625
I1516401638
aI291672633
abaS'world'
p626
abag1
(g16
g3
Ntp627
Rp628
(lp629
g1
(g20
g3
Ntp630
Rp631
(lp632
F1.0508723258972168
aF1.8819197416305542
aF0.07373198866844177
abag1
(g24
g3
Ntp633
Rp634
(lp635
F-0.036474015563726425
aF0.03237098082900047
aF-0.724878191947937
aF0.6871487498283386
abababag1
(g2
g3
Ntp636
Rp637
(lp638
g1
(g7
g3
Ntp639
Rp640
(lp641
I115750
ag1
(g11
g3
Ntp642
Rp643
(lp644
I1516401638
aI391389530
abaS'world'
p645
abag1
(g16
g3
Ntp646
Rp647
(lp648
g1
(g20
g3
Ntp649
Rp650
(lp651
F1.060308814048767
aF1.8324052095413208
aF0.07354835420846939
abag1
(g24
g3
Ntp652
Rp653
(lp654
F0.03030131570994854
aF-0.04083788022398949
aF-0.6475348472595215
aF0.7603372931480408
abababag1
(g2
g3
Ntp655
Rp656
(lp657
g1
(g7
g3
Ntp658
Rp659
(lp660
I115760
ag1
(g11
g3
Ntp661
Rp662
(lp663
I1516401638
aI491534438
abaS'world'
p664
abag1
(g16
g3
Ntp665
Rp666
(lp667
g1
(g20
g3
Ntp668
Rp669
(lp670
F1.0626317262649536
aF1.783373475074768
aF0.08262617141008377
abag1
(g24
g3
Ntp671
Rp672
(lp673
F-0.06968223303556442
aF0.00802720244973898
aF-0.7140966653823853
aF0.6965241432189941
abababag1
(g2
g3
Ntp674
Rp675
(lp676
g1
(g7
g3
Ntp677
Rp678
(lp679
I115770
ag1
(g11
g3
Ntp680
Rp681
(lp682
I1516401638
aI591488946
abaS'world'
p683
abag1
(g16
g3
Ntp684
Rp685
(lp686
g1
(g20
g3
Ntp687
Rp688
(lp689
F1.0521739721298218
aF1.732157588005066
aF0.06541232019662857
abag1
(g24
g3
Ntp690
Rp691
(lp692
F0.12516407668590546
aF-0.050934065133333206
aF-0.7305824160575867
aF0.6693198680877686
abababag1
(g2
g3
Ntp693
Rp694
(lp695
g1
(g7
g3
Ntp696
Rp697
(lp698
I115780
ag1
(g11
g3
Ntp699
Rp700
(lp701
I1516401638
aI691525206
abaS'world'
p702
abag1
(g16
g3
Ntp703
Rp704
(lp705
g1
(g20
g3
Ntp706
Rp707
(lp708
F1.0559513568878174
aF1.6901333332061768
aF0.08064068108797073
abag1
(g24
g3
Ntp709
Rp710
(lp711
F-0.04079144075512886
aF0.0995246022939682
aF-0.7636620402336121
aF0.6365934610366821
abababag1
(g2
g3
Ntp712
Rp713
(lp714
g1
(g7
g3
Ntp715
Rp716
(lp717
I115790
ag1
(g11
g3
Ntp718
Rp719
(lp720
I1516401638
aI791759685
abaS'world'
p721
abag1
(g16
g3
Ntp722
Rp723
(lp724
g1
(g20
g3
Ntp725
Rp726
(lp727
F1.0411428213119507
aF1.6447731256484985
aF0.07590010017156601
abag1
(g24
g3
Ntp728
Rp729
(lp730
F-0.0016912533901631832
aF0.022165613248944283
aF-0.7514597177505493
aF0.6594043374061584
abababag1
(g2
g3
Ntp731
Rp732
(lp733
g1
(g7
g3
Ntp734
Rp735
(lp736
I115800
ag1
(g11
g3
Ntp737
Rp738
(lp739
I1516401638
aI891696535
abaS'world'
p740
abag1
(g16
g3
Ntp741
Rp742
(lp743
g1
(g20
g3
Ntp744
Rp745
(lp746
F1.0103132724761963
aF1.5994288921356201
aF0.07027878612279892
abag1
(g24
g3
Ntp747
Rp748
(lp749
F0.03377010300755501
aF-0.012669633142650127
aF-0.7593170404434204
aF0.6497204899787903
abababag1
(g2
g3
Ntp750
Rp751
(lp752
g1
(g7
g3
Ntp753
Rp754
(lp755
I115810
ag1
(g11
g3
Ntp756
Rp757
(lp758
I1516401638
aI991573356
abaS'world'
p759
abag1
(g16
g3
Ntp760
Rp761
(lp762
g1
(g20
g3
Ntp763
Rp764
(lp765
F0.9985179901123047
aF1.5630196332931519
aF0.06473242491483688
abag1
(g24
g3
Ntp766
Rp767
(lp768
F-0.07071973383426666
aF0.047316960990428925
aF-0.7343685626983643
aF0.6733964681625366
abababag1
(g2
g3
Ntp769
Rp770
(lp771
g1
(g7
g3
Ntp772
Rp773
(lp774
I115820
ag1
(g11
g3
Ntp775
Rp776
(lp777
I1516401639
aI91637378
abaS'world'
p778
abag1
(g16
g3
Ntp779
Rp780
(lp781
g1
(g20
g3
Ntp782
Rp783
(lp784
F0.9784135818481445
aF1.5430625677108765
aF0.07907475531101227
abag1
(g24
g3
Ntp785
Rp786
(lp787
F-0.09626755118370056
aF-0.11156781017780304
aF-0.7404599189758301
aF0.65574711561203
abababag1
(g2
g3
Ntp788
Rp789
(lp790
g1
(g7
g3
Ntp791
Rp792
(lp793
I115830
ag1
(g11
g3
Ntp794
Rp795
(lp796
I1516401639
aI191506845
abaS'world'
p797
abag1
(g16
g3
Ntp798
Rp799
(lp800
g1
(g20
g3
Ntp801
Rp802
(lp803
F0.9653186798095703
aF1.5161985158920288
aF0.07212521135807037
abag1
(g24
g3
Ntp804
Rp805
(lp806
F0.03091796673834324
aF-0.03335374593734741
aF-0.8414342403411865
aF0.5384422540664673
abababag1
(g2
g3
Ntp807
Rp808
(lp809
g1
(g7
g3
Ntp810
Rp811
(lp812
I115840
ag1
(g11
g3
Ntp813
Rp814
(lp815
I1516401639
aI291518259
abaS'world'
p816
abag1
(g16
g3
Ntp817
Rp818
(lp819
g1
(g20
g3
Ntp820
Rp821
(lp822
F0.9431542754173279
aF1.4726099967956543
aF0.06644592434167862
abag1
(g24
g3
Ntp823
Rp824
(lp825
F0.017828166484832764
aF0.15188783407211304
aF-0.9225138425827026
aF0.3543732464313507
abababag1
(g2
g3
Ntp826
Rp827
(lp828
g1
(g7
g3
Ntp829
Rp830
(lp831
I115850
ag1
(g11
g3
Ntp832
Rp833
(lp834
I1516401639
aI391571309
abaS'world'
p835
abag1
(g16
g3
Ntp836
Rp837
(lp838
g1
(g20
g3
Ntp839
Rp840
(lp841
F0.9216434955596924
aF1.454939603805542
aF0.07382816821336746
abag1
(g24
g3
Ntp842
Rp843
(lp844
F-0.03407203033566475
aF0.046338800340890884
aF-0.9091746211051941
aF0.4124237895011902
abababag1
(g2
g3
Ntp845
Rp846
(lp847
g1
(g7
g3
Ntp848
Rp849
(lp850
I115860
ag1
(g11
g3
Ntp851
Rp852
(lp853
I1516401639
aI491566052
abaS'world'
p854
abag1
(g16
g3
Ntp855
Rp856
(lp857
g1
(g20
g3
Ntp858
Rp859
(lp860
F0.8999437093734741
aF1.4236629009246826
aF0.06808053702116013
abag1
(g24
g3
Ntp861
Rp862
(lp863
F-0.017559152096509933
aF0.11413078755140305
aF-0.8657861948013306
aF0.486908882856369
abababag1
(g2
g3
Ntp864
Rp865
(lp866
g1
(g7
g3
Ntp867
Rp868
(lp869
I115870
ag1
(g11
g3
Ntp870
Rp871
(lp872
I1516401639
aI591518365
abaS'world'
p873
abag1
(g16
g3
Ntp874
Rp875
(lp876
g1
(g20
g3
Ntp877
Rp878
(lp879
F0.8933897614479065
aF1.4005615711212158
aF0.07060487568378448
abag1
(g24
g3
Ntp880
Rp881
(lp882
F0.04137679189443588
aF-0.04892298951745033
aF-0.6981545090675354
aF0.713074266910553
abababag1
(g2
g3
Ntp883
Rp884
(lp885
g1
(g7
g3
Ntp886
Rp887
(lp888
I115880
ag1
(g11
g3
Ntp889
Rp890
(lp891
I1516401639
aI691645273
abaS'world'
p892
abag1
(g16
g3
Ntp893
Rp894
(lp895
g1
(g20
g3
Ntp896
Rp897
(lp898
F0.8891064524650574
aF1.35377037525177
aF0.06541169434785843
abag1
(g24
g3
Ntp899
Rp900
(lp901
F0.07430316507816315
aF-0.06847387552261353
aF-0.6310461163520813
aF0.7691367268562317
abababag1
(g2
g3
Ntp902
Rp903
(lp904
g1
(g7
g3
Ntp905
Rp906
(lp907
I115890
ag1
(g11
g3
Ntp908
Rp909
(lp910
I1516401639
aI791682430
abaS'world'
p911
abag1
(g16
g3
Ntp912
Rp913
(lp914
g1
(g20
g3
Ntp915
Rp916
(lp917
F0.8833121657371521
aF1.3104387521743774
aF0.06980277597904205
abag1
(g24
g3
Ntp918
Rp919
(lp920
F-0.04188873618841171
aF-0.034447818994522095
aF-0.6724551916122437
aF0.7381482124328613
abababag1
(g2
g3
Ntp921
Rp922
(lp923
g1
(g7
g3
Ntp924
Rp925
(lp926
I115900
ag1
(g11
g3
Ntp927
Rp928
(lp929
I1516401639
aI891522012
abaS'world'
p930
abag1
(g16
g3
Ntp931
Rp932
(lp933
g1
(g20
g3
Ntp934
Rp935
(lp936
F0.8834761381149292
aF1.2672741413116455
aF0.0743606686592102
abag1
(g24
g3
Ntp937
Rp938
(lp939
F-0.10065548866987228
aF-0.016779860481619835
aF-0.7357001304626465
aF0.6695762276649475
abababag1
(g2
g3
Ntp940
Rp941
(lp942
g1
(g7
g3
Ntp943
Rp944
(lp945
I115910
ag1
(g11
g3
Ntp946
Rp947
(lp948
I1516401639
aI991468539
abaS'world'
p949
abag1
(g16
g3
Ntp950
Rp951
(lp952
g1
(g20
g3
Ntp953
Rp954
(lp955
F0.8760280609130859
aF1.2159366607666016
aF0.06772508472204208
abag1
(g24
g3
Ntp956
Rp957
(lp958
F0.09034902602434158
aF-0.11368308961391449
aF-0.6993805170059204
aF0.6998429298400879
abababa.