(lp0
ccopy_reg
_reconstructor
p1
(cnn_dynamics_roach.msg._velroach_msg
velroach_msg
p2
c__builtin__
object
p3
Ntp4
Rp5
(lp6
g1
(crospy.rostime
Time
p7
g3
Ntp8
Rp9
(lp10
I1518822916
aI653928995
abaI0
aI0
aI3145064
aI5352320
aI2226
aI3994
aI-710
aI-145
aI-25
aI862
abag1
(g2
g3
Ntp11
Rp12
(lp13
g1
(g7
g3
Ntp14
Rp15
(lp16
I1518822916
aI781600952
abaF494.8785744146615
aF512.3302143021469
aI3143712
aI5351832
aI-300
aI-279
aI239
aI-20
aI-12
aI886
abag1
(g2
g3
Ntp17
Rp18
(lp19
g1
(g7
g3
Ntp20
Rp21
(lp22
I1518822916
aI783452033
abaF298.9277008615899
aF346.93964895206074
aI3143712
aI5351832
aI-300
aI-279
aI239
aI-20
aI-12
aI886
abag1
(g2
g3
Ntp23
Rp24
(lp25
g1
(g7
g3
Ntp26
Rp27
(lp28
I1518822916
aI854659080
abaF245.28293871234257
aF354.51692883929456
aI3143712
aI5351832
aI-300
aI-279
aI239
aI-20
aI-12
aI886
abag1
(g2
g3
Ntp29
Rp30
(lp31
g1
(g7
g3
Ntp32
Rp33
(lp34
I1518822916
aI954775094
abaF278.0396830301164
aF326.5751928601391
aI3193744
aI5399348
aI2741
aI-5871
aI-2080
aI31
aI-69
aI877
abag1
(g2
g3
Ntp35
Rp36
(lp37
g1
(g7
g3
Ntp38
Rp39
(lp40
I1518822917
aI54559946
abaF370.99389432901563
aF489.3555122262675
aI3212708
aI5426920
aI-985
aI-2600
aI-3285
aI19
aI-43
aI845
abag1
(g2
g3
Ntp41
Rp42
(lp43
g1
(g7
g3
Ntp44
Rp45
(lp46
I1518822917
aI154514074
abaF233.06862900792586
aF553.0562126829275
aI3238648
aI5455388
aI3856
aI953
aI-657
aI34
aI24
aI865
abag1
(g2
g3
Ntp47
Rp48
(lp49
g1
(g7
g3
Ntp50
Rp51
(lp52
I1518822917
aI254594087
abaF250.32015932021955
aF479.465203796084
aI3271272
aI5492800
aI-5452
aI-2937
aI-221
aI-13
aI-321
aI834
abag1
(g2
g3
Ntp53
Rp54
(lp55
g1
(g7
g3
Ntp56
Rp57
(lp58
I1518822917
aI354480028
abaF538.9077849931397
aF291.7509401444107
aI3287224
aI5547188
aI-2055
aI1313
aI-703
aI95
aI-101
aI881
abag1
(g2
g3
Ntp59
Rp60
(lp61
g1
(g7
g3
Ntp62
Rp63
(lp64
I1518822917
aI454479932
abaF267.2652403074809
aF406.761606636806
aI3310508
aI5590892
aI-2320
aI-1687
aI2694
aI11
aI-63
aI867
abag1
(g2
g3
Ntp65
Rp66
(lp67
g1
(g7
g3
Ntp68
Rp69
(lp70
I1518822917
aI554419994
abaF203.44119656870004
aF396.80934791038936
aI3358040
aI5615748
aI-6700
aI218
aI-447
aI125
aI-35
aI863
abag1
(g2
g3
Ntp71
Rp72
(lp73
g1
(g7
g3
Ntp74
Rp75
(lp76
I1518822917
aI654481887
abaF301.55654810659144
aF263.8591417085144
aI3383580
aI5652880
aI-2071
aI-2740
aI777
aI15
aI19
aI849
abag1
(g2
g3
Ntp77
Rp78
(lp79
g1
(g7
g3
Ntp80
Rp81
(lp82
I1518822917
aI754489898
abaF139.60569191378963
aF340.83093420769217
aI3400284
aI5685140
aI4177
aI-2460
aI1562
aI8
aI-339
aI849
abag1
(g2
g3
Ntp83
Rp84
(lp85
g1
(g7
g3
Ntp86
Rp87
(lp88
I1518822917
aI854494094
abaF281.92676407781585
aF570.4184876726188
aI3424916
aI5711288
aI-1043
aI5234
aI-759
aI104
aI-40
aI885
abag1
(g2
g3
Ntp89
Rp90
(lp91
g1
(g7
g3
Ntp92
Rp93
(lp94
I1518822917
aI954447984
abaF516.2151029863317
aF518.0156431606387
aI3439156
aI5744712
aI-1813
aI6113
aI2616
aI10
aI-61
aI885
abag1
(g2
g3
Ntp95
Rp96
(lp97
g1
(g7
g3
Ntp98
Rp99
(lp100
I1518822918
aI54774999
abaF553.3735777178101
aF192.27663075363645
aI3464964
aI5801804
aI-3560
aI5795
aI4389
aI52
aI-121
aI882
abag1
(g2
g3
Ntp101
Rp102
(lp103
g1
(g7
g3
Ntp104
Rp105
(lp106
I1518822918
aI154520034
abaF538.9771199381815
aF242.038235137482
aI3513472
aI5852552
aI-2596
aI-1801
aI-2910
aI114
aI-128
aI887
abag1
(g2
g3
Ntp107
Rp108
(lp109
g1
(g7
g3
Ntp110
Rp111
(lp112
I1518822918
aI254462003
abaF356.2537795120618
aF375.46015750351205
aI3553408
aI5869824
aI1788
aI6160
aI3374
aI158
aI-26
aI884
abag1
(g2
g3
Ntp113
Rp114
(lp115
g1
(g7
g3
Ntp116
Rp117
(lp118
I1518822918
aI354535102
abaF219.8686196566468
aF227.67458135022622
aI3607416
aI5884072
aI3521
aI-2361
aI-1152
aI45
aI-334
aI859
abag1
(g2
g3
Ntp119
Rp120
(lp121
g1
(g7
g3
Ntp122
Rp123
(lp124
I1518822918
aI454463958
abaF572.7238074641407
aF301.18678943713354
aI3642736
aI5918192
aI1830
aI-8673
aI-1944
aI17
aI-23
aI865
abag1
(g2
g3
Ntp125
Rp126
(lp127
g1
(g7
g3
Ntp128
Rp129
(lp130
I1518822918
aI554480075
abaF508.40308672206277
aF184.33367284413154
aI3663540
aI5940712
aI-8348
aI856
aI3889
aI-6
aI-32
aI879
abag1
(g2
g3
Ntp131
Rp132
(lp133
g1
(g7
g3
Ntp134
Rp135
(lp136
I1518822918
aI654490947
abaF557.1735572262196
aF363.16083381011947
aI3721864
aI5971812
aI-469
aI-1055
aI-2928
aI74
aI-43
aI887
abag1
(g2
g3
Ntp137
Rp138
(lp139
g1
(g7
g3
Ntp140
Rp141
(lp142
I1518822918
aI754502058
abaF427.7620502688907
aF445.2344496759767
aI3772244
aI5990820
aI1393
aI-3843
aI-1687
aI84
aI-35
aI890
abag1
(g2
g3
Ntp143
Rp144
(lp145
g1
(g7
g3
Ntp146
Rp147
(lp148
I1518822918
aI854609012
abaF220.5500956034489
aF179.1898744960114
aI3820416
aI6019760
aI3284
aI-6099
aI-1739
aI160
aI-354
aI858
abag1
(g2
g3
Ntp149
Rp150
(lp151
g1
(g7
g3
Ntp152
Rp153
(lp154
I1518822918
aI954530000
abaF321.5016371070537
aF526.8481675630121
aI3859568
aI6065100
aI-10128
aI13602
aI1406
aI26
aI-78
aI870
abag1
(g2
g3
Ntp155
Rp156
(lp157
g1
(g7
g3
Ntp158
Rp159
(lp160
I1518822919
aI54467916
abaF390.48866400336556
aF388.2866693223414
aI3882912
aI6081812
aI-243
aI-4527
aI-5065
aI3
aI-51
aI881
abag1
(g2
g3
Ntp161
Rp162
(lp163
g1
(g7
g3
Ntp164
Rp165
(lp166
I1518822919
aI154458999
abaF464.8433950500942
aF397.72369988593283
aI3915980
aI6134720
aI1935
aI-6116
aI-2077
aI15
aI-113
aI884
abag1
(g2
g3
Ntp167
Rp168
(lp169
g1
(g7
g3
Ntp170
Rp171
(lp172
I1518822919
aI254476070
abaF368.4749604860144
aF437.39098115591014
aI3955840
aI6173204
aI1339
aI-2273
aI28
aI49
aI-65
aI883
abag1
(g2
g3
Ntp173
Rp174
(lp175
g1
(g7
g3
Ntp176
Rp177
(lp178
I1518822919
aI354453086
abaF370.75764093777303
aF397.47639183099534
aI3996392
aI6209948
aI-9816
aI4601
aI1985
aI256
aI-15
aI834
abag1
(g2
g3
Ntp179
Rp180
(lp181
g1
(g7
g3
Ntp182
Rp183
(lp184
I1518822919
aI454433917
abaF542.0424303777797
aF504.0898361786815
aI4031720
aI6251348
aI-2671
aI658
aI572
aI31
aI-59
aI863
abag1
(g2
g3
Ntp185
Rp186
(lp187
g1
(g7
g3
Ntp188
Rp189
(lp190
I1518822919
aI554522991
abaF370.52740005169915
aF352.95566822843773
aI4064924
aI6286528
aI4692
aI2560
aI867
aI55
aI-107
aI866
abag1
(g2
g3
Ntp191
Rp192
(lp193
g1
(g7
g3
Ntp194
Rp195
(lp196
I1518822919
aI654794931
abaF306.378086830805
aF541.8086990116644
aI4120232
aI6332984
aI-6700
aI-11909
aI-1296
aI51
aI74
aI863
abag1
(g2
g3
Ntp197
Rp198
(lp199
g1
(g7
g3
Ntp200
Rp201
(lp202
I1518822919
aI754481077
abaF170.34530777762512
aF367.3006438108482
aI4158152
aI6369276
aI1594
aI2290
aI38
aI33
aI-73
aI886
abag1
(g2
g3
Ntp203
Rp204
(lp205
g1
(g7
g3
Ntp206
Rp207
(lp208
I1518822919
aI854573011
abaF262.9379014044262
aF210.29702649160367
aI4185516
aI6410908
aI5243
aI-2872
aI593
aI-40
aI-339
aI827
abag1
(g2
g3
Ntp209
Rp210
(lp211
g1
(g7
g3
Ntp212
Rp213
(lp214
I1518822919
aI954530954
abaF351.360505492682
aF476.35660124185944
aI4204332
aI6446336
aI-1181
aI-3033
aI2623
aI1
aI-45
aI869
abag1
(g2
g3
Ntp215
Rp216
(lp217
g1
(g7
g3
Ntp218
Rp219
(lp220
I1518822920
aI54716110
abaF458.35917731185947
aF584.8833520925123
aI4230048
aI6466064
aI2194
aI-2335
aI173
aI38
aI-36
aI873
abag1
(g2
g3
Ntp221
Rp222
(lp223
g1
(g7
g3
Ntp224
Rp225
(lp226
I1518822920
aI154704093
abaF557.2168267501415
aF315.8858927957628
aI4257188
aI6514124
aI3967
aI4677
aI-1663
aI266
aI-91
aI847
abag1
(g2
g3
Ntp227
Rp228
(lp229
g1
(g7
g3
Ntp230
Rp231
(lp232
I1518822920
aI254473924
abaF160.048131644022
aF530.0122976084784
aI4304136
aI6565988
aI912
aI-6208
aI1395
aI58
aI-185
aI882
abag1
(g2
g3
Ntp233
Rp234
(lp235
g1
(g7
g3
Ntp236
Rp237
(lp238
I1518822920
aI354511976
abaF131.89117177575577
aF557.4532072552843
aI4358748
aI6596808
aI-986
aI-60
aI-1764
aI112
aI-44
aI873
abag1
(g2
g3
Ntp239
Rp240
(lp241
g1
(g7
g3
Ntp242
Rp243
(lp244
I1518822920
aI454742908
abaF517.6895442685967
aF193.42292561532645
aI4374652
aI6651160
aI-1181
aI7119
aI3544
aI-11
aI-129
aI865
abag1
(g2
g3
Ntp245
Rp246
(lp247
g1
(g7
g3
Ntp248
Rp249
(lp250
I1518822920
aI554980039
abaF159.0017506992885
aF534.4773380491656
aI4387024
aI6707800
aI169
aI7162
aI2735
aI-11
aI-119
aI875
abag1
(g2
g3
Ntp251
Rp252
(lp253
g1
(g7
g3
Ntp254
Rp255
(lp256
I1518822920
aI654495000
abaF227.3309399708029
aF495.3735386775774
aI4440668
aI6728892
aI-2007
aI-7516
aI3265
aI63
aI-12
aI880
abag1
(g2
g3
Ntp257
Rp258
(lp259
g1
(g7
g3
Ntp260
Rp261
(lp262
I1518822920
aI754515886
abaF171.64277265773083
aF577.1705436658777
aI4455744
aI6783404
aI-548
aI-141
aI-803
aI-23
aI-119
aI870
abag1
(g2
g3
Ntp263
Rp264
(lp265
g1
(g7
g3
Ntp266
Rp267
(lp268
I1518822920
aI854571104
abaF225.79291613393107
aF540.6195150248725
aI4478860
aI6834356
aI-299
aI5013
aI2506
aI11
aI-100
aI881
abag1
(g2
g3
Ntp269
Rp270
(lp271
g1
(g7
g3
Ntp272
Rp273
(lp274
I1518822920
aI954503059
abaF225.0252424595758
aF583.3609782132194
aI4497844
aI6877964
aI5139
aI-6096
aI1193
aI-7
aI-378
aI868
abag1
(g2
g3
Ntp275
Rp276
(lp277
g1
(g7
g3
Ntp278
Rp279
(lp280
I1518822921
aI54445028
abaF132.95253320614765
aF513.5472148618907
aI4516256
aI6925888
aI1302
aI-4668
aI-1684
aI-27
aI-312
aI818
abag1
(g2
g3
Ntp281
Rp282
(lp283
g1
(g7
g3
Ntp284
Rp285
(lp286
I1518822921
aI154414892
abaF200.5660035580778
aF492.9744338908072
aI4540768
aI6986368
aI-490
aI-1971
aI-3305
aI7
aI-102
aI887
abag1
(g2
g3
Ntp287
Rp288
(lp289
g1
(g7
g3
Ntp290
Rp291
(lp292
I1518822921
aI254637002
abaF167.43695404670777
aF574.3400727958485
aI4555124
aI7038988
aI316
aI-1080
aI1590
aI13
aI-122
aI883
abag1
(g2
g3
Ntp293
Rp294
(lp295
g1
(g7
g3
Ntp296
Rp297
(lp298
I1518822921
aI354548931
abaF178.82935552210668
aF578.6579785413055
aI4575908
aI7077436
aI2384
aI-205
aI4587
aI-24
aI-388
aI862
abag1
(g2
g3
Ntp299
Rp300
(lp301
g1
(g7
g3
Ntp302
Rp303
(lp304
I1518822921
aI454503059
abaF170.05051975480148
aF493.77252465429007
aI4587672
aI7125616
aI260
aI-687
aI-2410
aI-52
aI-334
aI834
aba.