(lp0
ccopy_reg
_reconstructor
p1
(cnn_dynamics_roach.msg._velroach_msg
velroach_msg
p2
c__builtin__
object
p3
Ntp4
Rp5
(lp6
g1
(crospy.rostime
Time
p7
g3
Ntp8
Rp9
(lp10
I1518822040
aI897213935
abaI0
aI0
aI5001144
aI5813660
aI1060
aI-7867
aI-5780
aI74
aI-53
aI890
abag1
(g2
g3
Ntp11
Rp12
(lp13
g1
(g7
g3
Ntp14
Rp15
(lp16
I1518822040
aI957386970
abaF237.3317478023419
aF379.7991527085398
aI5002432
aI5814008
aI37
aI200
aI84
aI-14
aI-10
aI915
abag1
(g2
g3
Ntp17
Rp18
(lp19
g1
(g7
g3
Ntp20
Rp21
(lp22
I1518822041
aI31030893
abaF267.3594477575614
aF344.62831133270595
aI5002428
aI5813324
aI9
aI-74
aI59
aI-19
aI-6
aI915
abag1
(g2
g3
Ntp23
Rp24
(lp25
g1
(g7
g3
Ntp26
Rp27
(lp28
I1518822041
aI134011030
abaF217.36725630800134
aF553.0846311242956
aI5027840
aI5845508
aI-64
aI-2625
aI540
aI24
aI-108
aI915
abag1
(g2
g3
Ntp29
Rp30
(lp31
g1
(g7
g3
Ntp32
Rp33
(lp34
I1518822041
aI229652881
abaF225.02969936158314
aF289.5675186748135
aI5045168
aI5886756
aI-1949
aI-1769
aI-3544
aI8
aI-348
aI857
abag1
(g2
g3
Ntp35
Rp36
(lp37
g1
(g7
g3
Ntp38
Rp39
(lp40
I1518822041
aI332520008
abaF230.42655423426154
aF174.57320476399252
aI5066496
aI5911864
aI4401
aI-1230
aI-548
aI24
aI-54
aI882
abag1
(g2
g3
Ntp41
Rp42
(lp43
g1
(g7
g3
Ntp44
Rp45
(lp46
I1518822041
aI426704883
abaF296.5891610501151
aF178.6313216506338
aI5086300
aI5926676
aI4514
aI550
aI1690
aI17
aI-59
aI897
abag1
(g2
g3
Ntp47
Rp48
(lp49
g1
(g7
g3
Ntp50
Rp51
(lp52
I1518822041
aI532838106
abaF425.24304118770556
aF273.4431452343606
aI5105848
aI5941796
aI846
aI2116
aI-330
aI244
aI-28
aI850
abag1
(g2
g3
Ntp53
Rp54
(lp55
g1
(g7
g3
Ntp56
Rp57
(lp58
I1518822041
aI629283905
abaF460.1489587025653
aF413.6825693070911
aI5145232
aI5968716
aI388
aI2958
aI-222
aI45
aI-45
aI898
abag1
(g2
g3
Ntp59
Rp60
(lp61
g1
(g7
g3
Ntp62
Rp63
(lp64
I1518822041
aI731637954
abaF464.9647725043191
aF235.1743721572878
aI5186972
aI6009396
aI2911
aI10806
aI-1008
aI136
aI-64
aI917
abag1
(g2
g3
Ntp65
Rp66
(lp67
g1
(g7
g3
Ntp68
Rp69
(lp70
I1518822041
aI836299896
abaF442.58083801317343
aF155.83215288041566
aI5232000
aI6032344
aI-11
aI-2567
aI2775
aI25
aI-56
aI900
abag1
(g2
g3
Ntp71
Rp72
(lp73
g1
(g7
g3
Ntp74
Rp75
(lp76
I1518822041
aI933315038
abaF554.0636827554976
aF296.9973974527003
aI5275272
aI6047328
aI981
aI-64
aI-3757
aI38
aI-39
aI903
abag1
(g2
g3
Ntp77
Rp78
(lp79
g1
(g7
g3
Ntp80
Rp81
(lp82
I1518822042
aI29819011
abaF316.91750612645825
aF559.6989631366528
aI5323868
aI6075860
aI-2601
aI3189
aI1807
aI167
aI-28
aI901
abag1
(g2
g3
Ntp83
Rp84
(lp85
g1
(g7
g3
Ntp86
Rp87
(lp88
I1518822042
aI133836030
abaF470.1236519029534
aF337.2369684563562
aI5355268
aI6129892
aI-290
aI2487
aI3163
aI28
aI-90
aI906
abag1
(g2
g3
Ntp89
Rp90
(lp91
g1
(g7
g3
Ntp92
Rp93
(lp94
I1518822042
aI235713958
abaF547.4935624080638
aF363.5702305505876
aI5399356
aI6162764
aI1779
aI-1391
aI-2084
aI118
aI-100
aI910
abag1
(g2
g3
Ntp95
Rp96
(lp97
g1
(g7
g3
Ntp98
Rp99
(lp100
I1518822042
aI333739042
abaF318.1848431645745
aF342.8219633397355
aI5436208
aI6195772
aI-7696
aI461
aI4970
aI224
aI-70
aI854
abag1
(g2
g3
Ntp101
Rp102
(lp103
g1
(g7
g3
Ntp104
Rp105
(lp106
I1518822042
aI437532901
abaF161.3845878661638
aF264.64096765582474
aI5467916
aI6229436
aI957
aI-4394
aI-129
aI45
aI-85
aI910
abag1
(g2
g3
Ntp107
Rp108
(lp109
g1
(g7
g3
Ntp110
Rp111
(lp112
I1518822042
aI529972076
abaF582.9078331082081
aF154.90593662595018
aI5485952
aI6255724
aI-1498
aI-1447
aI-434
aI20
aI-74
aI914
abag1
(g2
g3
Ntp113
Rp114
(lp115
g1
(g7
g3
Ntp116
Rp117
(lp118
I1518822042
aI635548114
abaF549.367449351499
aF174.20551471039937
aI5543804
aI6270080
aI-1722
aI-2733
aI-1171
aI79
aI-7
aI898
abag1
(g2
g3
Ntp119
Rp120
(lp121
g1
(g7
g3
Ntp122
Rp123
(lp124
I1518822042
aI732506990
abaF575.9856812352932
aF167.36654415977276
aI5586408
aI6284648
aI1170
aI-335
aI-1457
aI220
aI-79
aI913
abag1
(g2
g3
Ntp125
Rp126
(lp127
g1
(g7
g3
Ntp128
Rp129
(lp130
I1518822042
aI829026937
abaF539.212893421744
aF164.6077471555757
aI5631704
aI6300608
aI2581
aI4124
aI-177
aI280
aI-39
aI867
abag1
(g2
g3
Ntp131
Rp132
(lp133
g1
(g7
g3
Ntp134
Rp135
(lp136
I1518822042
aI931778907
abaF516.9476870038238
aF137.83899142711576
aI5685304
aI6314348
aI940
aI-2220
aI-3244
aI71
aI-41
aI891
abag1
(g2
g3
Ntp137
Rp138
(lp139
g1
(g7
g3
Ntp140
Rp141
(lp142
I1518822043
aI34794092
abaF558.8074848849358
aF157.91251762111534
aI5736816
aI6328248
aI-203
aI-1023
aI737
aI58
aI-25
aI910
abag1
(g2
g3
Ntp143
Rp144
(lp145
g1
(g7
g3
Ntp146
Rp147
(lp148
I1518822043
aI131369113
abaF505.5937356717479
aF157.10691503951833
aI5792240
aI6341456
aI-442
aI-3509
aI1573
aI88
aI-26
aI897
abag1
(g2
g3
Ntp149
Rp150
(lp151
g1
(g7
g3
Ntp152
Rp153
(lp154
I1518822043
aI228811979
abaF542.3985143952115
aF177.2955369739043
aI5832808
aI6356856
aI1956
aI6526
aI1907
aI256
aI-58
aI877
abag1
(g2
g3
Ntp155
Rp156
(lp157
g1
(g7
g3
Ntp158
Rp159
(lp160
I1518822043
aI335958003
abaF552.4704569035528
aF134.90550004971314
aI5887176
aI6374456
aI-465
aI-3827
aI493
aI38
aI-27
aI905
abag1
(g2
g3
Ntp161
Rp162
(lp163
g1
(g7
g3
Ntp164
Rp165
(lp166
I1518822043
aI434513092
abaF552.134061757574
aF193.15118739355745
aI5941396
aI6387844
aI-612
aI2771
aI62
aI140
aI-23
aI910
abag1
(g2
g3
Ntp167
Rp168
(lp169
g1
(g7
g3
Ntp170
Rp171
(lp172
I1518822043
aI531749963
abaF545.0939409118112
aF156.4036719359467
aI5995436
aI6403736
aI1144
aI-2423
aI-3021
aI40
aI-50
aI879
abag1
(g2
g3
Ntp173
Rp174
(lp175
g1
(g7
g3
Ntp176
Rp177
(lp178
I1518822043
aI628869056
abaF497.3658545596802
aF183.15610076078656
aI6031300
aI6419672
aI3218
aI5346
aI-474
aI275
aI-28
aI874
abag1
(g2
g3
Ntp179
Rp180
(lp181
g1
(g7
g3
Ntp182
Rp183
(lp184
I1518822043
aI724395990
abaF520.5390283643131
aF167.98551107226206
aI6081840
aI6438704
aI262
aI-2979
aI-4722
aI80
aI-46
aI916
abag1
(g2
g3
Ntp185
Rp186
(lp187
g1
(g7
g3
Ntp188
Rp189
(lp190
I1518822043
aI834422111
abaF568.6071331993627
aF135.63423400507534
aI6135040
aI6456244
aI-75
aI1850
aI1408
aI75
aI-43
aI916
abag1
(g2
g3
Ntp191
Rp192
(lp193
g1
(g7
g3
Ntp194
Rp195
(lp196
I1518822043
aI931324005
abaF538.5313953901843
aF189.05639791940226
aI6191328
aI6469384
aI690
aI-3064
aI-1192
aI143
aI-18
aI908
abag1
(g2
g3
Ntp197
Rp198
(lp199
g1
(g7
g3
Ntp200
Rp201
(lp202
I1518822044
aI27960062
abaF574.9470505491131
aF217.90545740267584
aI6227896
aI6481832
aI640
aI1213
aI1220
aI258
aI-67
aI857
abag1
(g2
g3
Ntp203
Rp204
(lp205
g1
(g7
g3
Ntp206
Rp207
(lp208
I1518822044
aI130230903
abaF542.7512471657087
aF176.50969630790627
aI6283768
aI6503192
aI-2507
aI-3429
aI-538
aI244
aI-66
aI873
abag1
(g2
g3
Ntp209
Rp210
(lp211
g1
(g7
g3
Ntp212
Rp213
(lp214
I1518822044
aI234014987
abaF549.4263621934631
aF203.94931822813595
aI6339988
aI6521176
aI-257
aI-6325
aI730
aI74
aI-45
aI913
abag1
(g2
g3
Ntp215
Rp216
(lp217
g1
(g7
g3
Ntp218
Rp219
(lp220
I1518822044
aI331018924
abaF535.2978312370402
aF192.47816300343632
aI6392592
aI6539108
aI-532
aI-3889
aI-2250
aI155
aI-27
aI897
abag1
(g2
g3
Ntp221
Rp222
(lp223
g1
(g7
g3
Ntp224
Rp225
(lp226
I1518822044
aI426856040
abaF524.4856413767893
aF156.71466159160238
aI6440356
aI6558680
aI938
aI2125
aI61
aI188
aI-42
aI915
abag1
(g2
g3
Ntp227
Rp228
(lp229
g1
(g7
g3
Ntp230
Rp231
(lp232
I1518822044
aI531102895
abaF502.2790539558817
aF159.56738706362125
aI6485612
aI6575036
aI2095
aI4157
aI323
aI271
aI-16
aI875
abag1
(g2
g3
Ntp233
Rp234
(lp235
g1
(g7
g3
Ntp236
Rp237
(lp238
I1518822044
aI633454084
abaF547.2892819609355
aF194.05792906071102
aI6538520
aI6590560
aI-4261
aI-8932
aI-987
aI82
aI-32
aI911
abag1
(g2
g3
Ntp239
Rp240
(lp241
g1
(g7
g3
Ntp242
Rp243
(lp244
I1518822044
aI731077909
abaF551.0192349967394
aF163.0519279028186
aI6595084
aI6607392
aI1736
aI-7905
aI-4982
aI86
aI-36
aI897
abag1
(g2
g3
Ntp245
Rp246
(lp247
g1
(g7
g3
Ntp248
Rp249
(lp250
I1518822044
aI834285020
abaF528.903524815011
aF215.19015810850112
aI6646272
aI6623712
aI4828
aI3311
aI-3116
aI172
aI-14
aI903
abag1
(g2
g3
Ntp251
Rp252
(lp253
g1
(g7
g3
Ntp254
Rp255
(lp256
I1518822044
aI926629066
abaF578.0391344225973
aF148.73783979142974
aI6685228
aI6641312
aI3802
aI8053
aI181
aI270
aI117
aI841
abag1
(g2
g3
Ntp257
Rp258
(lp259
g1
(g7
g3
Ntp260
Rp261
(lp262
I1518822045
aI33262014
abaF661.1100987957076
aF206.34002143792122
aI6745624
aI6650424
aI1067
aI-3130
aI-432
aI30
aI209
aI875
abag1
(g2
g3
Ntp263
Rp264
(lp265
g1
(g7
g3
Ntp266
Rp267
(lp268
I1518822045
aI130362987
abaF299.19192956508573
aF795.0864209630615
aI6812196
aI6667048
aI2569
aI-1545
aI-941
aI176
aI15
aI869
abag1
(g2
g3
Ntp269
Rp270
(lp271
g1
(g7
g3
Ntp272
Rp273
(lp274
I1518822045
aI233566045
abaF303.6550162345708
aF679.9676669466228
aI6843056
aI6669896
aI338
aI-217
aI26
aI-13
aI-353
aI850
abag1
(g2
g3
Ntp275
Rp276
(lp277
g1
(g7
g3
Ntp278
Rp279
(lp280
I1518822045
aI326212882
abaF182.73006935044282
aF699.1814509960554
aI6873972
aI6736808
aI-4878
aI3103
aI5111
aI21
aI-195
aI901
abag1
(g2
g3
Ntp281
Rp282
(lp283
g1
(g7
g3
Ntp284
Rp285
(lp286
I1518822045
aI434128999
abaF683.5136972083131
aF610.5356727023764
aI6895964
aI6804700
aI-3461
aI647
aI-1127
aI6
aI-337
aI875
abag1
(g2
g3
Ntp287
Rp288
(lp289
g1
(g7
g3
Ntp290
Rp291
(lp292
I1518822045
aI530608892
abaF507.9081061668099
aF782.7674852158323
aI6951460
aI6863288
aI-10651
aI5599
aI595
aI243
aI-295
aI827
abag1
(g2
g3
Ntp293
Rp294
(lp295
g1
(g7
g3
Ntp296
Rp297
(lp298
I1518822045
aI634010076
abaF642.7232589545428
aF546.2289947245647
aI7001796
aI6942556
aI-2309
aI6369
aI4178
aI-56
aI-120
aI862
abag1
(g2
g3
Ntp299
Rp300
(lp301
g1
(g7
g3
Ntp302
Rp303
(lp304
I1518822045
aI726234912
abaF501.7618086328343
aF202.80279834782777
aI7069100
aI6998880
aI1201
aI-9733
aI5438
aI97
aI-122
aI911
aba.